   1              		.arch armv6-m
   2              		.eabi_attribute 20, 1
   3              		.eabi_attribute 21, 1
   4              		.eabi_attribute 23, 3
   5              		.eabi_attribute 24, 1
   6              		.eabi_attribute 25, 1
   7              		.eabi_attribute 26, 1
   8              		.eabi_attribute 30, 6
   9              		.eabi_attribute 34, 0
  10              		.eabi_attribute 18, 4
  11              		.file	"Pedro.c"
  12              		.text
  13              	.Ltext0:
  14              		.cfi_sections	.debug_frame
  15              		.data
  16              		.align	2
  19              	pedro_still:
  20 0000 00       		.byte	0
  21 0001 E0       		.byte	-32
  22 0002 F0       		.byte	-16
  23 0003 F8       		.byte	-8
  24 0004 FC       		.byte	-4
  25 0005 FE       		.byte	-2
  26 0006 FE       		.byte	-2
  27 0007 FF       		.byte	-1
  28 0008 FF       		.byte	-1
  29 0009 7F       		.byte	127
  30 000a 1F       		.byte	31
  31 000b 1F       		.byte	31
  32 000c 0F       		.byte	15
  33 000d 0E       		.byte	14
  34 000e 1C       		.byte	28
  35 000f 18       		.byte	24
  36 0010 30       		.byte	48
  37 0011 60       		.byte	96
  38 0012 80       		.byte	-128
  39 0013 00       		.byte	0
  40 0014 1F       		.byte	31
  41 0015 7F       		.byte	127
  42 0016 FF       		.byte	-1
  43 0017 C7       		.byte	-57
  44 0018 1F       		.byte	31
  45 0019 1F       		.byte	31
  46 001a 83       		.byte	-125
  47 001b 01       		.byte	1
  48 001c 0B       		.byte	11
  49 001d 04       		.byte	4
  50 001e 24       		.byte	36
  51 001f 34       		.byte	52
  52 0020 04       		.byte	4
  53 0021 00       		.byte	0
  54 0022 00       		.byte	0
  55 0023 24       		.byte	36
  56 0024 72       		.byte	114
  57 0025 82       		.byte	-126
  58 0026 07       		.byte	7
  59 0027 F8       		.byte	-8
  60 0028 00       		.byte	0
  61 0029 00       		.byte	0
  62 002a 01       		.byte	1
  63 002b 03       		.byte	3
  64 002c 86       		.byte	-122
  65 002d 4C       		.byte	76
  66 002e 31       		.byte	49
  67 002f 22       		.byte	34
  68 0030 40       		.byte	64
  69 0031 80       		.byte	-128
  70 0032 8C       		.byte	-116
  71 0033 14       		.byte	20
  72 0034 28       		.byte	40
  73 0035 38       		.byte	56
  74 0036 28       		.byte	40
  75 0037 1A       		.byte	26
  76 0038 02       		.byte	2
  77 0039 01       		.byte	1
  78 003a F8       		.byte	-8
  79 003b 07       		.byte	7
  80 003c 00       		.byte	0
  81 003d 00       		.byte	0
  82 003e 00       		.byte	0
  83 003f 06       		.byte	6
  84 0040 09       		.byte	9
  85 0041 06       		.byte	6
  86 0042 7B       		.byte	123
  87 0043 A4       		.byte	-92
  88 0044 A4       		.byte	-92
  89 0045 D5       		.byte	-43
  90 0046 3E       		.byte	62
  91 0047 E5       		.byte	-27
  92 0048 A5       		.byte	-91
  93 0049 BE       		.byte	-66
  94 004a C6       		.byte	-58
  95 004b 0A       		.byte	10
  96 004c 06       		.byte	6
  97 004d 01       		.byte	1
  98 004e 00       		.byte	0
  99 004f 00       		.byte	0
 100              		.align	2
 103              	pedro_jump:
 104 0050 00       		.byte	0
 105 0051 E0       		.byte	-32
 106 0052 F0       		.byte	-16
 107 0053 F8       		.byte	-8
 108 0054 FC       		.byte	-4
 109 0055 FE       		.byte	-2
 110 0056 FE       		.byte	-2
 111 0057 FF       		.byte	-1
 112 0058 FF       		.byte	-1
 113 0059 7F       		.byte	127
 114 005a 1F       		.byte	31
 115 005b 1F       		.byte	31
 116 005c 0F       		.byte	15
 117 005d 0E       		.byte	14
 118 005e 1C       		.byte	28
 119 005f 18       		.byte	24
 120 0060 30       		.byte	48
 121 0061 60       		.byte	96
 122 0062 80       		.byte	-128
 123 0063 00       		.byte	0
 124 0064 1F       		.byte	31
 125 0065 7F       		.byte	127
 126 0066 FF       		.byte	-1
 127 0067 C7       		.byte	-57
 128 0068 1F       		.byte	31
 129 0069 1F       		.byte	31
 130 006a 83       		.byte	-125
 131 006b 01       		.byte	1
 132 006c 0B       		.byte	11
 133 006d 04       		.byte	4
 134 006e 24       		.byte	36
 135 006f 34       		.byte	52
 136 0070 04       		.byte	4
 137 0071 00       		.byte	0
 138 0072 00       		.byte	0
 139 0073 24       		.byte	36
 140 0074 72       		.byte	114
 141 0075 82       		.byte	-126
 142 0076 07       		.byte	7
 143 0077 F8       		.byte	-8
 144 0078 00       		.byte	0
 145 0079 00       		.byte	0
 146 007a 01       		.byte	1
 147 007b 03       		.byte	3
 148 007c 86       		.byte	-122
 149 007d 4C       		.byte	76
 150 007e 31       		.byte	49
 151 007f 22       		.byte	34
 152 0080 40       		.byte	64
 153 0081 80       		.byte	-128
 154 0082 8C       		.byte	-116
 155 0083 14       		.byte	20
 156 0084 28       		.byte	40
 157 0085 38       		.byte	56
 158 0086 28       		.byte	40
 159 0087 1A       		.byte	26
 160 0088 02       		.byte	2
 161 0089 01       		.byte	1
 162 008a F8       		.byte	-8
 163 008b 07       		.byte	7
 164 008c 00       		.byte	0
 165 008d 00       		.byte	0
 166 008e 00       		.byte	0
 167 008f 76       		.byte	118
 168 0090 49       		.byte	73
 169 0091 7E       		.byte	126
 170 0092 2B       		.byte	43
 171 0093 24       		.byte	36
 172 0094 14       		.byte	20
 173 0095 15       		.byte	21
 174 0096 0E       		.byte	14
 175 0097 15       		.byte	21
 176 0098 15       		.byte	21
 177 0099 26       		.byte	38
 178 009a 2A       		.byte	42
 179 009b 3A       		.byte	58
 180 009c 26       		.byte	38
 181 009d 1D       		.byte	29
 182 009e 00       		.byte	0
 183 009f 00       		.byte	0
 184              		.align	2
 187              	pedro_walk1:
 188 00a0 00       		.byte	0
 189 00a1 E0       		.byte	-32
 190 00a2 F0       		.byte	-16
 191 00a3 F8       		.byte	-8
 192 00a4 FC       		.byte	-4
 193 00a5 FE       		.byte	-2
 194 00a6 FE       		.byte	-2
 195 00a7 FF       		.byte	-1
 196 00a8 FF       		.byte	-1
 197 00a9 7F       		.byte	127
 198 00aa 1F       		.byte	31
 199 00ab 1F       		.byte	31
 200 00ac 0F       		.byte	15
 201 00ad 0E       		.byte	14
 202 00ae 1C       		.byte	28
 203 00af 18       		.byte	24
 204 00b0 30       		.byte	48
 205 00b1 60       		.byte	96
 206 00b2 80       		.byte	-128
 207 00b3 00       		.byte	0
 208 00b4 1F       		.byte	31
 209 00b5 7F       		.byte	127
 210 00b6 FF       		.byte	-1
 211 00b7 C7       		.byte	-57
 212 00b8 1F       		.byte	31
 213 00b9 1F       		.byte	31
 214 00ba 83       		.byte	-125
 215 00bb 01       		.byte	1
 216 00bc 0B       		.byte	11
 217 00bd 04       		.byte	4
 218 00be 24       		.byte	36
 219 00bf 34       		.byte	52
 220 00c0 04       		.byte	4
 221 00c1 00       		.byte	0
 222 00c2 00       		.byte	0
 223 00c3 24       		.byte	36
 224 00c4 72       		.byte	114
 225 00c5 82       		.byte	-126
 226 00c6 07       		.byte	7
 227 00c7 F8       		.byte	-8
 228 00c8 00       		.byte	0
 229 00c9 00       		.byte	0
 230 00ca 01       		.byte	1
 231 00cb 83       		.byte	-125
 232 00cc 46       		.byte	70
 233 00cd 2C       		.byte	44
 234 00ce B1       		.byte	-79
 235 00cf 22       		.byte	34
 236 00d0 40       		.byte	64
 237 00d1 80       		.byte	-128
 238 00d2 8C       		.byte	-116
 239 00d3 14       		.byte	20
 240 00d4 28       		.byte	40
 241 00d5 38       		.byte	56
 242 00d6 28       		.byte	40
 243 00d7 1A       		.byte	26
 244 00d8 02       		.byte	2
 245 00d9 01       		.byte	1
 246 00da F8       		.byte	-8
 247 00db 07       		.byte	7
 248 00dc 00       		.byte	0
 249 00dd 00       		.byte	0
 250 00de 00       		.byte	0
 251 00df 07       		.byte	7
 252 00e0 0A       		.byte	10
 253 00e1 05       		.byte	5
 254 00e2 1B       		.byte	27
 255 00e3 64       		.byte	100
 256 00e4 A4       		.byte	-92
 257 00e5 B5       		.byte	-75
 258 00e6 DE       		.byte	-34
 259 00e7 A5       		.byte	-91
 260 00e8 B5       		.byte	-75
 261 00e9 CE       		.byte	-50
 262 00ea 06       		.byte	6
 263 00eb 0A       		.byte	10
 264 00ec 06       		.byte	6
 265 00ed 01       		.byte	1
 266 00ee 00       		.byte	0
 267 00ef 00       		.byte	0
 268              		.align	2
 271              	pedro_walk2:
 272 00f0 00       		.byte	0
 273 00f1 C0       		.byte	-64
 274 00f2 E0       		.byte	-32
 275 00f3 F0       		.byte	-16
 276 00f4 F8       		.byte	-8
 277 00f5 FC       		.byte	-4
 278 00f6 FC       		.byte	-4
 279 00f7 FE       		.byte	-2
 280 00f8 FE       		.byte	-2
 281 00f9 FE       		.byte	-2
 282 00fa 3E       		.byte	62
 283 00fb 3E       		.byte	62
 284 00fc 1E       		.byte	30
 285 00fd 1C       		.byte	28
 286 00fe 38       		.byte	56
 287 00ff 30       		.byte	48
 288 0100 60       		.byte	96
 289 0101 C0       		.byte	-64
 290 0102 00       		.byte	0
 291 0103 00       		.byte	0
 292 0104 3E       		.byte	62
 293 0105 FF       		.byte	-1
 294 0106 FF       		.byte	-1
 295 0107 8F       		.byte	-113
 296 0108 3F       		.byte	63
 297 0109 3F       		.byte	63
 298 010a 07       		.byte	7
 299 010b 03       		.byte	3
 300 010c 17       		.byte	23
 301 010d 08       		.byte	8
 302 010e 48       		.byte	72
 303 010f 68       		.byte	104
 304 0110 08       		.byte	8
 305 0111 00       		.byte	0
 306 0112 00       		.byte	0
 307 0113 48       		.byte	72
 308 0114 E4       		.byte	-28
 309 0115 04       		.byte	4
 310 0116 0F       		.byte	15
 311 0117 F0       		.byte	-16
 312 0118 00       		.byte	0
 313 0119 00       		.byte	0
 314 011a 03       		.byte	3
 315 011b 07       		.byte	7
 316 011c CC       		.byte	-52
 317 011d 38       		.byte	56
 318 011e A3       		.byte	-93
 319 011f 44       		.byte	68
 320 0120 80       		.byte	-128
 321 0121 00       		.byte	0
 322 0122 18       		.byte	24
 323 0123 28       		.byte	40
 324 0124 50       		.byte	80
 325 0125 70       		.byte	112
 326 0126 50       		.byte	80
 327 0127 34       		.byte	52
 328 0128 04       		.byte	4
 329 0129 03       		.byte	3
 330 012a F0       		.byte	-16
 331 012b 0F       		.byte	15
 332 012c 00       		.byte	0
 333 012d 00       		.byte	0
 334 012e 00       		.byte	0
 335 012f 00       		.byte	0
 336 0130 00       		.byte	0
 337 0131 73       		.byte	115
 338 0132 AE       		.byte	-82
 339 0133 A5       		.byte	-91
 340 0134 D6       		.byte	-42
 341 0135 0B       		.byte	11
 342 0136 1D       		.byte	29
 343 0137 E6       		.byte	-26
 344 0138 A6       		.byte	-90
 345 0139 BC       		.byte	-68
 346 013a C4       		.byte	-60
 347 013b 04       		.byte	4
 348 013c 04       		.byte	4
 349 013d 02       		.byte	2
 350 013e 01       		.byte	1
 351 013f 00       		.byte	0
 352              		.align	2
 355              	Pedro:
 356 0140 20000000 		.word	32
 357 0144 14000000 		.word	20
 358 0148 20000000 		.word	32
 359 014c 00000000 		.word	0
 360 0150 00000000 		.word	0
 361 0154 00000000 		.word	0
 362 0158 00000000 		.word	0
 363 015c 00000000 		.word	0
 364 0160 00000000 		.word	0
 365 0164 00000000 		.word	pedro_still
 366 0168 00000000 		.word	draw
 367 016c 00000000 		.word	0
 368              		.global	__aeabi_idiv
 369              		.text
 370              		.align	1
 371              		.global	move
 372              		.syntax unified
 373              		.code	16
 374              		.thumb_func
 375              		.fpu softvfp
 377              	move:
 378              	.LFB0:
 379              		.file 1 "Z:/MOP/c-code/mop/SuperPedro/Pedro.c"
   1:Z:/MOP/c-code/mop/SuperPedro\Pedro.c **** #include "pedro.h"
   2:Z:/MOP/c-code/mop/SuperPedro\Pedro.c **** #include "LcdAscii.h"
   3:Z:/MOP/c-code/mop/SuperPedro\Pedro.c **** 
   4:Z:/MOP/c-code/mop/SuperPedro\Pedro.c **** 
   5:Z:/MOP/c-code/mop/SuperPedro\Pedro.c **** extern char backBuffer[256][8];
   6:Z:/MOP/c-code/mop/SuperPedro\Pedro.c **** 
   7:Z:/MOP/c-code/mop/SuperPedro\Pedro.c **** 
   8:Z:/MOP/c-code/mop/SuperPedro\Pedro.c **** static volatile unsigned char pedro_still[4][20] = {{0b00000000, 0b11100000, 0b11110000, 0b11111000
   9:Z:/MOP/c-code/mop/SuperPedro\Pedro.c **** 						{0b00011111, 0b01111111, 0b11111111, 0b11000111, 0b00011111, 0b00011111, 0b10000011, 0b000000
  10:Z:/MOP/c-code/mop/SuperPedro\Pedro.c **** 						{0b00000000, 0b00000000, 0b00000001, 0b00000011, 0b10000110, 0b01001100, 0b00110001, 0b001000
  11:Z:/MOP/c-code/mop/SuperPedro\Pedro.c **** 						{0b00000000, 0b00000000, 0b00000000, 0b00000110, 0b00001001, 0b00000110, 0b01111011, 0b101001
  12:Z:/MOP/c-code/mop/SuperPedro\Pedro.c **** static volatile unsigned char pedro_jump[4][20] = {{0b00000000, 0b11100000, 0b11110000, 0b11111000,
  13:Z:/MOP/c-code/mop/SuperPedro\Pedro.c **** 						{0b00011111, 0b01111111, 0b11111111, 0b11000111, 0b00011111, 0b00011111, 0b10000011, 0b000000
  14:Z:/MOP/c-code/mop/SuperPedro\Pedro.c **** 						{0b00000000, 0b00000000, 0b00000001, 0b00000011, 0b10000110, 0b01001100, 0b00110001, 0b001000
  15:Z:/MOP/c-code/mop/SuperPedro\Pedro.c **** 						{0b00000000, 0b00000000, 0b00000000, 0b01110110, 0b01001001, 0b01111110, 0b00101011, 0b001001
  16:Z:/MOP/c-code/mop/SuperPedro\Pedro.c **** static volatile unsigned char pedro_walk1[4][20] = {{0b00000000, 0b11100000, 0b11110000, 0b11111000
  17:Z:/MOP/c-code/mop/SuperPedro\Pedro.c **** 						{0b00011111, 0b01111111, 0b11111111, 0b11000111, 0b00011111, 0b00011111, 0b10000011, 0b000000
  18:Z:/MOP/c-code/mop/SuperPedro\Pedro.c **** 						{0b00000000, 0b00000000, 0b00000001, 0b10000011, 0b01000110, 0b00101100, 0b10110001, 0b001000
  19:Z:/MOP/c-code/mop/SuperPedro\Pedro.c **** 						{0b00000000, 0b00000000, 0b00000000, 0b00000111, 0b00001010, 0b00000101, 0b00011011, 0b011001
  20:Z:/MOP/c-code/mop/SuperPedro\Pedro.c **** static volatile unsigned char pedro_walk2[4][20] = {{0b00000000, 0b11000000, 0b11100000, 0b11110000
  21:Z:/MOP/c-code/mop/SuperPedro\Pedro.c **** 						{0b00111110, 0b11111111, 0b11111111, 0b10001111, 0b00111111, 0b00111111, 0b00000111, 0b000000
  22:Z:/MOP/c-code/mop/SuperPedro\Pedro.c **** 						{0b00000000, 0b00000000, 0b00000011, 0b00000111, 0b11001100, 0b00111000, 0b10100011, 0b010001
  23:Z:/MOP/c-code/mop/SuperPedro\Pedro.c **** 						{0b00000000, 0b00000000, 0b00000000, 0b00000000, 0b00000000, 0b01110011, 0b10101110, 0b101001
  24:Z:/MOP/c-code/mop/SuperPedro\Pedro.c **** 
  25:Z:/MOP/c-code/mop/SuperPedro\Pedro.c **** 
  26:Z:/MOP/c-code/mop/SuperPedro\Pedro.c **** 
  27:Z:/MOP/c-code/mop/SuperPedro\Pedro.c **** static OBJECT Pedro = 
  28:Z:/MOP/c-code/mop/SuperPedro\Pedro.c **** {
  29:Z:/MOP/c-code/mop/SuperPedro\Pedro.c **** 	32,
  30:Z:/MOP/c-code/mop/SuperPedro\Pedro.c ****  20,				//height, width
  31:Z:/MOP/c-code/mop/SuperPedro\Pedro.c **** 	32,
  32:Z:/MOP/c-code/mop/SuperPedro\Pedro.c ****     0,				//initial startposition
  33:Z:/MOP/c-code/mop/SuperPedro\Pedro.c **** 	0,
  34:Z:/MOP/c-code/mop/SuperPedro\Pedro.c ****     0,				//Hastighet
  35:Z:/MOP/c-code/mop/SuperPedro\Pedro.c **** 	0,
  36:Z:/MOP/c-code/mop/SuperPedro\Pedro.c ****     0,				//Acceleration
  37:Z:/MOP/c-code/mop/SuperPedro\Pedro.c ****     0,
  38:Z:/MOP/c-code/mop/SuperPedro\Pedro.c **** 	&pedro_still,		//Sprite
  39:Z:/MOP/c-code/mop/SuperPedro\Pedro.c **** 	&draw,
  40:Z:/MOP/c-code/mop/SuperPedro\Pedro.c **** 	0, 
  41:Z:/MOP/c-code/mop/SuperPedro\Pedro.c ****     /*komplettera?*/
  42:Z:/MOP/c-code/mop/SuperPedro\Pedro.c **** };
  43:Z:/MOP/c-code/mop/SuperPedro\Pedro.c **** 
  44:Z:/MOP/c-code/mop/SuperPedro\Pedro.c **** 
  45:Z:/MOP/c-code/mop/SuperPedro\Pedro.c **** void move(){								//Kollar knapptryck och uppdaterar alla Pedros värden
 380              		.loc 1 45 0
 381              		.cfi_startproc
 382              		@ args = 0, pretend = 0, frame = 0
 383              		@ frame_needed = 1, uses_anonymous_args = 0
 384 0000 80B5     		push	{r7, lr}
 385              		.cfi_def_cfa_offset 8
 386              		.cfi_offset 7, -8
 387              		.cfi_offset 14, -4
 388 0002 00AF     		add	r7, sp, #0
 389              		.cfi_def_cfa_register 7
  46:Z:/MOP/c-code/mop/SuperPedro\Pedro.c ****     
  47:Z:/MOP/c-code/mop/SuperPedro\Pedro.c ****     checkKeys();
 390              		.loc 1 47 0
 391 0004 FFF7FEFF 		bl	checkKeys
  48:Z:/MOP/c-code/mop/SuperPedro\Pedro.c **** 
  49:Z:/MOP/c-code/mop/SuperPedro\Pedro.c ****     applyPhysics();
 392              		.loc 1 49 0
 393 0008 FFF7FEFF 		bl	applyPhysics
  50:Z:/MOP/c-code/mop/SuperPedro\Pedro.c ****     
  51:Z:/MOP/c-code/mop/SuperPedro\Pedro.c ****     if(Pedro.velx > 0){
 394              		.loc 1 51 0
 395 000c 1A4B     		ldr	r3, .L4
 396 000e 1B69     		ldr	r3, [r3, #16]
 397 0010 002B     		cmp	r3, #0
 398 0012 11DD     		ble	.L2
 399              	.LBB2:
  52:Z:/MOP/c-code/mop/SuperPedro\Pedro.c ****         shiftLeft();
 400              		.loc 1 52 0
 401 0014 FFF7FEFF 		bl	shiftLeft
  53:Z:/MOP/c-code/mop/SuperPedro\Pedro.c ****         delaymillis(200/Pedro.velx);
 402              		.loc 1 53 0
 403 0018 174B     		ldr	r3, .L4
 404 001a 1B69     		ldr	r3, [r3, #16]
 405 001c 1900     		movs	r1, r3
 406 001e C820     		movs	r0, #200
 407 0020 FFF7FEFF 		bl	__aeabi_idiv
 408              	.LVL0:
 409 0024 0300     		movs	r3, r0
 410 0026 1800     		movs	r0, r3
 411 0028 FFF7FEFF 		bl	delaymillis
  54:Z:/MOP/c-code/mop/SuperPedro\Pedro.c ****         Pedro.distance++;
 412              		.loc 1 54 0
 413 002c 124B     		ldr	r3, .L4
 414 002e 1B6A     		ldr	r3, [r3, #32]
 415 0030 5A1C     		adds	r2, r3, #1
 416 0032 114B     		ldr	r3, .L4
 417 0034 1A62     		str	r2, [r3, #32]
 418              	.LBE2:
 419 0036 15E0     		b	.L3
 420              	.L2:
  55:Z:/MOP/c-code/mop/SuperPedro\Pedro.c ****     }
  56:Z:/MOP/c-code/mop/SuperPedro\Pedro.c ****     else if(Pedro.velx < 0){
 421              		.loc 1 56 0
 422 0038 0F4B     		ldr	r3, .L4
 423 003a 1B69     		ldr	r3, [r3, #16]
 424 003c 002B     		cmp	r3, #0
 425 003e 11DA     		bge	.L3
 426              	.LBB3:
  57:Z:/MOP/c-code/mop/SuperPedro\Pedro.c ****         shiftRight();
 427              		.loc 1 57 0
 428 0040 FFF7FEFF 		bl	shiftRight
  58:Z:/MOP/c-code/mop/SuperPedro\Pedro.c ****         delaymillis(200/(-Pedro.velx));
 429              		.loc 1 58 0
 430 0044 0C4B     		ldr	r3, .L4
 431 0046 1B69     		ldr	r3, [r3, #16]
 432 0048 5B42     		rsbs	r3, r3, #0
 433 004a 1900     		movs	r1, r3
 434 004c C820     		movs	r0, #200
 435 004e FFF7FEFF 		bl	__aeabi_idiv
 436              	.LVL1:
 437 0052 0300     		movs	r3, r0
 438 0054 1800     		movs	r0, r3
 439 0056 FFF7FEFF 		bl	delaymillis
  59:Z:/MOP/c-code/mop/SuperPedro\Pedro.c ****         Pedro.distance++;
 440              		.loc 1 59 0
 441 005a 074B     		ldr	r3, .L4
 442 005c 1B6A     		ldr	r3, [r3, #32]
 443 005e 5A1C     		adds	r2, r3, #1
 444 0060 054B     		ldr	r3, .L4
 445 0062 1A62     		str	r2, [r3, #32]
 446              	.L3:
 447              	.LBE3:
  60:Z:/MOP/c-code/mop/SuperPedro\Pedro.c **** 
  61:Z:/MOP/c-code/mop/SuperPedro\Pedro.c ****     }
  62:Z:/MOP/c-code/mop/SuperPedro\Pedro.c ****     graphic_draw_screen();
 448              		.loc 1 62 0
 449 0064 FFF7FEFF 		bl	graphic_draw_screen
  63:Z:/MOP/c-code/mop/SuperPedro\Pedro.c ****     draw(&Pedro);  //extra args? FLYTTA? han kan ritas ut med resten av skärmen___________________
 450              		.loc 1 63 0
 451 0068 034B     		ldr	r3, .L4
 452 006a 1800     		movs	r0, r3
 453 006c FFF7FEFF 		bl	draw
  64:Z:/MOP/c-code/mop/SuperPedro\Pedro.c **** 
  65:Z:/MOP/c-code/mop/SuperPedro\Pedro.c **** }
 454              		.loc 1 65 0
 455 0070 C046     		nop
 456 0072 BD46     		mov	sp, r7
 457              		@ sp needed
 458 0074 80BD     		pop	{r7, pc}
 459              	.L5:
 460 0076 C046     		.align	2
 461              	.L4:
 462 0078 40010000 		.word	Pedro
 463              		.cfi_endproc
 464              	.LFE0:
 466              		.align	1
 467              		.global	checkKeys
 468              		.syntax unified
 469              		.code	16
 470              		.thumb_func
 471              		.fpu softvfp
 473              	checkKeys:
 474              	.LFB1:
  66:Z:/MOP/c-code/mop/SuperPedro\Pedro.c **** 
  67:Z:/MOP/c-code/mop/SuperPedro\Pedro.c **** //check keypresses and change pedros properties (acceleration for <- ^ -> and velocity for ^) accor
  68:Z:/MOP/c-code/mop/SuperPedro\Pedro.c **** void checkKeys(){
 475              		.loc 1 68 0
 476              		.cfi_startproc
 477              		@ args = 0, pretend = 0, frame = 0
 478              		@ frame_needed = 1, uses_anonymous_args = 0
 479 007c 80B5     		push	{r7, lr}
 480              		.cfi_def_cfa_offset 8
 481              		.cfi_offset 7, -8
 482              		.cfi_offset 14, -4
 483 007e 00AF     		add	r7, sp, #0
 484              		.cfi_def_cfa_register 7
 485              	.LBB4:
  69:Z:/MOP/c-code/mop/SuperPedro\Pedro.c ****     if(isRightKey() && !isLeftKey()){     //Kräver importerad keyb
 486              		.loc 1 69 0
 487 0080 FFF7FEFF 		bl	isRightKey
 488 0084 031E     		subs	r3, r0, #0
 489 0086 0FD0     		beq	.L7
 490              		.loc 1 69 0 is_stmt 0 discriminator 1
 491 0088 FFF7FEFF 		bl	isLeftKey
 492 008c 031E     		subs	r3, r0, #0
 493 008e 0BD1     		bne	.L7
  70:Z:/MOP/c-code/mop/SuperPedro\Pedro.c **** 		if(Pedro.velx < MAX_VELX){
 494              		.loc 1 70 0 is_stmt 1
 495 0090 284B     		ldr	r3, .L18
 496 0092 1B69     		ldr	r3, [r3, #16]
 497 0094 032B     		cmp	r3, #3
 498 0096 03DC     		bgt	.L8
  71:Z:/MOP/c-code/mop/SuperPedro\Pedro.c **** 			Pedro.accx = ACCX;     //accelerate right
 499              		.loc 1 71 0
 500 0098 264B     		ldr	r3, .L18
 501 009a 0122     		movs	r2, #1
 502 009c 9A61     		str	r2, [r3, #24]
  70:Z:/MOP/c-code/mop/SuperPedro\Pedro.c **** 		if(Pedro.velx < MAX_VELX){
 503              		.loc 1 70 0
 504 009e 2DE0     		b	.L10
 505              	.L8:
  72:Z:/MOP/c-code/mop/SuperPedro\Pedro.c **** 		}
  73:Z:/MOP/c-code/mop/SuperPedro\Pedro.c **** 		else{
  74:Z:/MOP/c-code/mop/SuperPedro\Pedro.c **** 			Pedro.accx = 0;
 506              		.loc 1 74 0
 507 00a0 244B     		ldr	r3, .L18
 508 00a2 0022     		movs	r2, #0
 509 00a4 9A61     		str	r2, [r3, #24]
  70:Z:/MOP/c-code/mop/SuperPedro\Pedro.c **** 			Pedro.accx = ACCX;     //accelerate right
 510              		.loc 1 70 0
 511 00a6 29E0     		b	.L10
 512              	.L7:
  75:Z:/MOP/c-code/mop/SuperPedro\Pedro.c **** 		}
  76:Z:/MOP/c-code/mop/SuperPedro\Pedro.c **** 	}
  77:Z:/MOP/c-code/mop/SuperPedro\Pedro.c **** 	else if(!isRightKey() && isLeftKey())
 513              		.loc 1 77 0
 514 00a8 FFF7FEFF 		bl	isRightKey
 515 00ac 031E     		subs	r3, r0, #0
 516 00ae 10D1     		bne	.L11
 517              		.loc 1 77 0 is_stmt 0 discriminator 1
 518 00b0 FFF7FEFF 		bl	isLeftKey
 519 00b4 031E     		subs	r3, r0, #0
 520 00b6 0CD0     		beq	.L11
  78:Z:/MOP/c-code/mop/SuperPedro\Pedro.c **** 	{
  79:Z:/MOP/c-code/mop/SuperPedro\Pedro.c **** 		if(Pedro.velx > -MAX_VELX){
 521              		.loc 1 79 0 is_stmt 1
 522 00b8 1E4B     		ldr	r3, .L18
 523 00ba 1B69     		ldr	r3, [r3, #16]
 524 00bc 0333     		adds	r3, r3, #3
 525 00be 04DB     		blt	.L12
  80:Z:/MOP/c-code/mop/SuperPedro\Pedro.c **** 			Pedro.accx = -ACCX;    //accelerate left
 526              		.loc 1 80 0
 527 00c0 1C4B     		ldr	r3, .L18
 528 00c2 0122     		movs	r2, #1
 529 00c4 5242     		rsbs	r2, r2, #0
 530 00c6 9A61     		str	r2, [r3, #24]
  79:Z:/MOP/c-code/mop/SuperPedro\Pedro.c **** 			Pedro.accx = -ACCX;    //accelerate left
 531              		.loc 1 79 0
 532 00c8 18E0     		b	.L10
 533              	.L12:
  81:Z:/MOP/c-code/mop/SuperPedro\Pedro.c **** 		}
  82:Z:/MOP/c-code/mop/SuperPedro\Pedro.c **** 		else{
  83:Z:/MOP/c-code/mop/SuperPedro\Pedro.c **** 			Pedro.accx = 0;
 534              		.loc 1 83 0
 535 00ca 1A4B     		ldr	r3, .L18
 536 00cc 0022     		movs	r2, #0
 537 00ce 9A61     		str	r2, [r3, #24]
  79:Z:/MOP/c-code/mop/SuperPedro\Pedro.c **** 			Pedro.accx = -ACCX;    //accelerate left
 538              		.loc 1 79 0
 539 00d0 14E0     		b	.L10
 540              	.L11:
  84:Z:/MOP/c-code/mop/SuperPedro\Pedro.c **** 		}
  85:Z:/MOP/c-code/mop/SuperPedro\Pedro.c **** 	}
  86:Z:/MOP/c-code/mop/SuperPedro\Pedro.c **** 	else                            //decrease velocity
  87:Z:/MOP/c-code/mop/SuperPedro\Pedro.c **** 	{
  88:Z:/MOP/c-code/mop/SuperPedro\Pedro.c **** 		Pedro.accx = 0;
 541              		.loc 1 88 0
 542 00d2 184B     		ldr	r3, .L18
 543 00d4 0022     		movs	r2, #0
 544 00d6 9A61     		str	r2, [r3, #24]
  89:Z:/MOP/c-code/mop/SuperPedro\Pedro.c **** 		if(Pedro.velx > 0){
 545              		.loc 1 89 0
 546 00d8 164B     		ldr	r3, .L18
 547 00da 1B69     		ldr	r3, [r3, #16]
 548 00dc 002B     		cmp	r3, #0
 549 00de 04DD     		ble	.L14
  90:Z:/MOP/c-code/mop/SuperPedro\Pedro.c **** 			Pedro.velx -= ACCX;
 550              		.loc 1 90 0
 551 00e0 144B     		ldr	r3, .L18
 552 00e2 1B69     		ldr	r3, [r3, #16]
 553 00e4 5A1E     		subs	r2, r3, #1
 554 00e6 134B     		ldr	r3, .L18
 555 00e8 1A61     		str	r2, [r3, #16]
 556              	.L14:
  91:Z:/MOP/c-code/mop/SuperPedro\Pedro.c **** 		}
  92:Z:/MOP/c-code/mop/SuperPedro\Pedro.c **** 		if(Pedro.velx < 0){
 557              		.loc 1 92 0
 558 00ea 124B     		ldr	r3, .L18
 559 00ec 1B69     		ldr	r3, [r3, #16]
 560 00ee 002B     		cmp	r3, #0
 561 00f0 04DA     		bge	.L10
  93:Z:/MOP/c-code/mop/SuperPedro\Pedro.c **** 			Pedro.velx += ACCX;
 562              		.loc 1 93 0
 563 00f2 104B     		ldr	r3, .L18
 564 00f4 1B69     		ldr	r3, [r3, #16]
 565 00f6 5A1C     		adds	r2, r3, #1
 566 00f8 0E4B     		ldr	r3, .L18
 567 00fa 1A61     		str	r2, [r3, #16]
 568              	.L10:
 569              	.LBE4:
  94:Z:/MOP/c-code/mop/SuperPedro\Pedro.c **** 		}
  95:Z:/MOP/c-code/mop/SuperPedro\Pedro.c **** 	}
  96:Z:/MOP/c-code/mop/SuperPedro\Pedro.c ****     
  97:Z:/MOP/c-code/mop/SuperPedro\Pedro.c ****     if(isJumping()){
 570              		.loc 1 97 0
 571 00fc FFF7FEFF 		bl	isJumping
 572 0100 031E     		subs	r3, r0, #0
 573 0102 03D0     		beq	.L15
  98:Z:/MOP/c-code/mop/SuperPedro\Pedro.c ****         Pedro.accy = 1;
 574              		.loc 1 98 0
 575 0104 0B4B     		ldr	r3, .L18
 576 0106 0122     		movs	r2, #1
 577 0108 DA61     		str	r2, [r3, #28]
  99:Z:/MOP/c-code/mop/SuperPedro\Pedro.c ****     }
 100:Z:/MOP/c-code/mop/SuperPedro\Pedro.c ****     else {  //Pedro on ground
 101:Z:/MOP/c-code/mop/SuperPedro\Pedro.c ****         Pedro.accy = 0;
 102:Z:/MOP/c-code/mop/SuperPedro\Pedro.c ****         if(isUpKey()){
 103:Z:/MOP/c-code/mop/SuperPedro\Pedro.c **** 			Pedro.vely = VELY;    //jump
 104:Z:/MOP/c-code/mop/SuperPedro\Pedro.c ****             Pedro.accy = 1;
 105:Z:/MOP/c-code/mop/SuperPedro\Pedro.c ****             Pedro.sprite = pedro_jump;
 106:Z:/MOP/c-code/mop/SuperPedro\Pedro.c **** 		}
 107:Z:/MOP/c-code/mop/SuperPedro\Pedro.c **** 	}
 108:Z:/MOP/c-code/mop/SuperPedro\Pedro.c ****     
 109:Z:/MOP/c-code/mop/SuperPedro\Pedro.c **** }
 578              		.loc 1 109 0
 579 010a 0FE0     		b	.L17
 580              	.L15:
 101:Z:/MOP/c-code/mop/SuperPedro\Pedro.c ****         if(isUpKey()){
 581              		.loc 1 101 0
 582 010c 094B     		ldr	r3, .L18
 583 010e 0022     		movs	r2, #0
 584 0110 DA61     		str	r2, [r3, #28]
 585              	.LBB5:
 102:Z:/MOP/c-code/mop/SuperPedro\Pedro.c **** 			Pedro.vely = VELY;    //jump
 586              		.loc 1 102 0
 587 0112 FFF7FEFF 		bl	isUpKey
 588 0116 031E     		subs	r3, r0, #0
 589 0118 08D0     		beq	.L17
 103:Z:/MOP/c-code/mop/SuperPedro\Pedro.c ****             Pedro.accy = 1;
 590              		.loc 1 103 0
 591 011a 064B     		ldr	r3, .L18
 592 011c 0522     		movs	r2, #5
 593 011e 5A61     		str	r2, [r3, #20]
 104:Z:/MOP/c-code/mop/SuperPedro\Pedro.c ****             Pedro.sprite = pedro_jump;
 594              		.loc 1 104 0
 595 0120 044B     		ldr	r3, .L18
 596 0122 0122     		movs	r2, #1
 597 0124 DA61     		str	r2, [r3, #28]
 105:Z:/MOP/c-code/mop/SuperPedro\Pedro.c **** 		}
 598              		.loc 1 105 0
 599 0126 034B     		ldr	r3, .L18
 600 0128 034A     		ldr	r2, .L18+4
 601 012a 5A62     		str	r2, [r3, #36]
 602              	.L17:
 603              	.LBE5:
 604              		.loc 1 109 0
 605 012c C046     		nop
 606 012e BD46     		mov	sp, r7
 607              		@ sp needed
 608 0130 80BD     		pop	{r7, pc}
 609              	.L19:
 610 0132 C046     		.align	2
 611              	.L18:
 612 0134 40010000 		.word	Pedro
 613 0138 50000000 		.word	pedro_jump
 614              		.cfi_endproc
 615              	.LFE1:
 617              		.align	1
 618              		.global	applyPhysics
 619              		.syntax unified
 620              		.code	16
 621              		.thumb_func
 622              		.fpu softvfp
 624              	applyPhysics:
 625              	.LFB2:
 110:Z:/MOP/c-code/mop/SuperPedro\Pedro.c **** 
 111:Z:/MOP/c-code/mop/SuperPedro\Pedro.c **** void applyPhysics(){
 626              		.loc 1 111 0
 627              		.cfi_startproc
 628              		@ args = 0, pretend = 0, frame = 0
 629              		@ frame_needed = 1, uses_anonymous_args = 0
 630 013c 80B5     		push	{r7, lr}
 631              		.cfi_def_cfa_offset 8
 632              		.cfi_offset 7, -8
 633              		.cfi_offset 14, -4
 634 013e 00AF     		add	r7, sp, #0
 635              		.cfi_def_cfa_register 7
 112:Z:/MOP/c-code/mop/SuperPedro\Pedro.c ****     //physics
 113:Z:/MOP/c-code/mop/SuperPedro\Pedro.c ****     Pedro.velx += Pedro.accx;
 636              		.loc 1 113 0
 637 0140 0B4B     		ldr	r3, .L21
 638 0142 1A69     		ldr	r2, [r3, #16]
 639 0144 0A4B     		ldr	r3, .L21
 640 0146 9B69     		ldr	r3, [r3, #24]
 641 0148 D218     		adds	r2, r2, r3
 642 014a 094B     		ldr	r3, .L21
 643 014c 1A61     		str	r2, [r3, #16]
 114:Z:/MOP/c-code/mop/SuperPedro\Pedro.c ****     
 115:Z:/MOP/c-code/mop/SuperPedro\Pedro.c ****     Pedro.vely += Pedro.accy;
 644              		.loc 1 115 0
 645 014e 084B     		ldr	r3, .L21
 646 0150 5A69     		ldr	r2, [r3, #20]
 647 0152 074B     		ldr	r3, .L21
 648 0154 DB69     		ldr	r3, [r3, #28]
 649 0156 D218     		adds	r2, r2, r3
 650 0158 054B     		ldr	r3, .L21
 651 015a 5A61     		str	r2, [r3, #20]
 116:Z:/MOP/c-code/mop/SuperPedro\Pedro.c **** 	Pedro.posy += Pedro.vely;
 652              		.loc 1 116 0
 653 015c 044B     		ldr	r3, .L21
 654 015e DA68     		ldr	r2, [r3, #12]
 655 0160 034B     		ldr	r3, .L21
 656 0162 5B69     		ldr	r3, [r3, #20]
 657 0164 D218     		adds	r2, r2, r3
 658 0166 024B     		ldr	r3, .L21
 659 0168 DA60     		str	r2, [r3, #12]
 117:Z:/MOP/c-code/mop/SuperPedro\Pedro.c ****     
 118:Z:/MOP/c-code/mop/SuperPedro\Pedro.c **** }
 660              		.loc 1 118 0
 661 016a C046     		nop
 662 016c BD46     		mov	sp, r7
 663              		@ sp needed
 664 016e 80BD     		pop	{r7, pc}
 665              	.L22:
 666              		.align	2
 667              	.L21:
 668 0170 40010000 		.word	Pedro
 669              		.cfi_endproc
 670              	.LFE2:
 672              		.align	1
 673              		.global	isJumping
 674              		.syntax unified
 675              		.code	16
 676              		.thumb_func
 677              		.fpu softvfp
 679              	isJumping:
 680              	.LFB3:
 119:Z:/MOP/c-code/mop/SuperPedro\Pedro.c **** 
 120:Z:/MOP/c-code/mop/SuperPedro\Pedro.c **** char isJumping(){
 681              		.loc 1 120 0
 682              		.cfi_startproc
 683              		@ args = 0, pretend = 0, frame = 0
 684              		@ frame_needed = 1, uses_anonymous_args = 0
 685 0174 80B5     		push	{r7, lr}
 686              		.cfi_def_cfa_offset 8
 687              		.cfi_offset 7, -8
 688              		.cfi_offset 14, -4
 689 0176 00AF     		add	r7, sp, #0
 690              		.cfi_def_cfa_register 7
 121:Z:/MOP/c-code/mop/SuperPedro\Pedro.c ****     return Pedro.posy < 0;       //groundlvl+pedroheight
 691              		.loc 1 121 0
 692 0178 034B     		ldr	r3, .L25
 693 017a DB68     		ldr	r3, [r3, #12]
 694 017c DB0F     		lsrs	r3, r3, #31
 695 017e DBB2     		uxtb	r3, r3
 122:Z:/MOP/c-code/mop/SuperPedro\Pedro.c **** }
 696              		.loc 1 122 0
 697 0180 1800     		movs	r0, r3
 698 0182 BD46     		mov	sp, r7
 699              		@ sp needed
 700 0184 80BD     		pop	{r7, pc}
 701              	.L26:
 702 0186 C046     		.align	2
 703              	.L25:
 704 0188 40010000 		.word	Pedro
 705              		.cfi_endproc
 706              	.LFE3:
 708              		.align	1
 709              		.global	draw
 710              		.syntax unified
 711              		.code	16
 712              		.thumb_func
 713              		.fpu softvfp
 715              	draw:
 716              	.LFB4:
 123:Z:/MOP/c-code/mop/SuperPedro\Pedro.c **** 
 124:Z:/MOP/c-code/mop/SuperPedro\Pedro.c **** 
 125:Z:/MOP/c-code/mop/SuperPedro\Pedro.c **** void draw(POBJECT object){
 717              		.loc 1 125 0
 718              		.cfi_startproc
 719              		@ args = 0, pretend = 0, frame = 40
 720              		@ frame_needed = 1, uses_anonymous_args = 0
 721 018c 80B5     		push	{r7, lr}
 722              		.cfi_def_cfa_offset 8
 723              		.cfi_offset 7, -8
 724              		.cfi_offset 14, -4
 725 018e 8AB0     		sub	sp, sp, #40
 726              		.cfi_def_cfa_offset 48
 727 0190 00AF     		add	r7, sp, #0
 728              		.cfi_def_cfa_register 7
 729 0192 7860     		str	r0, [r7, #4]
 126:Z:/MOP/c-code/mop/SuperPedro\Pedro.c **** 	 unsigned char i, j;
 127:Z:/MOP/c-code/mop/SuperPedro\Pedro.c **** 	 unsigned char* man = object->sprite;
 730              		.loc 1 127 0
 731 0194 7B68     		ldr	r3, [r7, #4]
 732 0196 5B6A     		ldr	r3, [r3, #36]
 733 0198 3B62     		str	r3, [r7, #32]
 128:Z:/MOP/c-code/mop/SuperPedro\Pedro.c **** 	 int shift = object->posy%8;
 734              		.loc 1 128 0
 735 019a 7B68     		ldr	r3, [r7, #4]
 736 019c DB68     		ldr	r3, [r3, #12]
 737 019e 824A     		ldr	r2, .L43
 738 01a0 1340     		ands	r3, r2
 739 01a2 04D5     		bpl	.L28
 740 01a4 013B     		subs	r3, r3, #1
 741 01a6 0822     		movs	r2, #8
 742 01a8 5242     		rsbs	r2, r2, #0
 743 01aa 1343     		orrs	r3, r2
 744 01ac 0133     		adds	r3, r3, #1
 745              	.L28:
 746 01ae FB61     		str	r3, [r7, #28]
 129:Z:/MOP/c-code/mop/SuperPedro\Pedro.c ****         for(j = 0; j < ((object->height)/8)+1; j++) {
 747              		.loc 1 129 0
 748 01b0 2623     		movs	r3, #38
 749 01b2 FB18     		adds	r3, r7, r3
 750 01b4 0022     		movs	r2, #0
 751 01b6 1A70     		strb	r2, [r3]
 752 01b8 E4E0     		b	.L29
 753              	.L42:
 130:Z:/MOP/c-code/mop/SuperPedro\Pedro.c **** 			if(!(object->posy+object->height > 64 && j < ((64-object->posy)/8))){						//If page is over his
 754              		.loc 1 130 0
 755 01ba 7B68     		ldr	r3, [r7, #4]
 756 01bc DA68     		ldr	r2, [r3, #12]
 757 01be 7B68     		ldr	r3, [r7, #4]
 758 01c0 1B68     		ldr	r3, [r3]
 759 01c2 D318     		adds	r3, r2, r3
 760 01c4 402B     		cmp	r3, #64
 761 01c6 0CDD     		ble	.L30
 762              		.loc 1 130 0 is_stmt 0 discriminator 1
 763 01c8 2623     		movs	r3, #38
 764 01ca FB18     		adds	r3, r7, r3
 765 01cc 1A78     		ldrb	r2, [r3]
 766 01ce 7B68     		ldr	r3, [r7, #4]
 767 01d0 DB68     		ldr	r3, [r3, #12]
 768 01d2 4021     		movs	r1, #64
 769 01d4 CB1A     		subs	r3, r1, r3
 770 01d6 00D5     		bpl	.L31
 771 01d8 0733     		adds	r3, r3, #7
 772              	.L31:
 773 01da DB10     		asrs	r3, r3, #3
 774 01dc 9A42     		cmp	r2, r3
 775 01de 00DA     		bge	.LCB348
 776 01e0 CAE0     		b	.L32	@long jump
 777              	.LCB348:
 778              	.L30:
 131:Z:/MOP/c-code/mop/SuperPedro\Pedro.c **** 				graphic_write_command(LCD_SET_PAGE | (((63-object->posy-object->height)/8)+j), B_CS1);
 779              		.loc 1 131 0 is_stmt 1
 780 01e2 7B68     		ldr	r3, [r7, #4]
 781 01e4 DB68     		ldr	r3, [r3, #12]
 782 01e6 3F22     		movs	r2, #63
 783 01e8 D21A     		subs	r2, r2, r3
 784 01ea 7B68     		ldr	r3, [r7, #4]
 785 01ec 1B68     		ldr	r3, [r3]
 786 01ee D31A     		subs	r3, r2, r3
 787 01f0 00D5     		bpl	.L33
 788 01f2 0733     		adds	r3, r3, #7
 789              	.L33:
 790 01f4 DB10     		asrs	r3, r3, #3
 791 01f6 DAB2     		uxtb	r2, r3
 792 01f8 2623     		movs	r3, #38
 793 01fa FB18     		adds	r3, r7, r3
 794 01fc 1B78     		ldrb	r3, [r3]
 795 01fe D318     		adds	r3, r2, r3
 796 0200 DBB2     		uxtb	r3, r3
 797 0202 5BB2     		sxtb	r3, r3
 798 0204 4822     		movs	r2, #72
 799 0206 5242     		rsbs	r2, r2, #0
 800 0208 1343     		orrs	r3, r2
 801 020a 5BB2     		sxtb	r3, r3
 802 020c DBB2     		uxtb	r3, r3
 803 020e 0821     		movs	r1, #8
 804 0210 1800     		movs	r0, r3
 805 0212 FFF7FEFF 		bl	graphic_write_command
 132:Z:/MOP/c-code/mop/SuperPedro\Pedro.c **** 				graphic_write_command(LCD_SET_ADD | object->posx, B_CS1);
 806              		.loc 1 132 0
 807 0216 7B68     		ldr	r3, [r7, #4]
 808 0218 9B68     		ldr	r3, [r3, #8]
 809 021a 5BB2     		sxtb	r3, r3
 810 021c 4022     		movs	r2, #64
 811 021e 1343     		orrs	r3, r2
 812 0220 5BB2     		sxtb	r3, r3
 813 0222 DBB2     		uxtb	r3, r3
 814 0224 0821     		movs	r1, #8
 815 0226 1800     		movs	r0, r3
 816 0228 FFF7FEFF 		bl	graphic_write_command
 133:Z:/MOP/c-code/mop/SuperPedro\Pedro.c **** 				for(i = 0; i < object->width; i++) {
 817              		.loc 1 133 0
 818 022c 2723     		movs	r3, #39
 819 022e FB18     		adds	r3, r7, r3
 820 0230 0022     		movs	r2, #0
 821 0232 1A70     		strb	r2, [r3]
 822 0234 98E0     		b	.L34
 823              	.L40:
 134:Z:/MOP/c-code/mop/SuperPedro\Pedro.c **** 					if(j == 0){
 824              		.loc 1 134 0
 825 0236 2623     		movs	r3, #38
 826 0238 FB18     		adds	r3, r7, r3
 827 023a 1B78     		ldrb	r3, [r3]
 828 023c 002B     		cmp	r3, #0
 829 023e 21D1     		bne	.L35
 830              	.LBB6:
 135:Z:/MOP/c-code/mop/SuperPedro\Pedro.c **** 						unsigned char* adress = (man+(j*object->width)+i);
 831              		.loc 1 135 0
 832 0240 2623     		movs	r3, #38
 833 0242 FB18     		adds	r3, r7, r3
 834 0244 1A78     		ldrb	r2, [r3]
 835 0246 7B68     		ldr	r3, [r7, #4]
 836 0248 5B68     		ldr	r3, [r3, #4]
 837 024a 5343     		muls	r3, r2
 838 024c 1A00     		movs	r2, r3
 839 024e 2723     		movs	r3, #39
 840 0250 FB18     		adds	r3, r7, r3
 841 0252 1B78     		ldrb	r3, [r3]
 842 0254 D318     		adds	r3, r2, r3
 843 0256 3A6A     		ldr	r2, [r7, #32]
 844 0258 D318     		adds	r3, r2, r3
 845 025a 3B61     		str	r3, [r7, #16]
 136:Z:/MOP/c-code/mop/SuperPedro\Pedro.c **** 						unsigned char byte = *adress;
 846              		.loc 1 136 0
 847 025c 0F20     		movs	r0, #15
 848 025e 3B18     		adds	r3, r7, r0
 849 0260 3A69     		ldr	r2, [r7, #16]
 850 0262 1278     		ldrb	r2, [r2]
 851 0264 1A70     		strb	r2, [r3]
 137:Z:/MOP/c-code/mop/SuperPedro\Pedro.c **** 						byte = byte<<(8-shift);
 852              		.loc 1 137 0
 853 0266 3B18     		adds	r3, r7, r0
 854 0268 1A78     		ldrb	r2, [r3]
 855 026a FB69     		ldr	r3, [r7, #28]
 856 026c 0821     		movs	r1, #8
 857 026e CB1A     		subs	r3, r1, r3
 858 0270 9A40     		lsls	r2, r2, r3
 859 0272 3B18     		adds	r3, r7, r0
 860 0274 1A70     		strb	r2, [r3]
 138:Z:/MOP/c-code/mop/SuperPedro\Pedro.c **** 						graphic_write_data(byte, B_CS1);
 861              		.loc 1 138 0
 862 0276 3B18     		adds	r3, r7, r0
 863 0278 1B78     		ldrb	r3, [r3]
 864 027a 0821     		movs	r1, #8
 865 027c 1800     		movs	r0, r3
 866 027e FFF7FEFF 		bl	graphic_write_data
 867              	.LBE6:
 868 0282 6BE0     		b	.L36
 869              	.L35:
 870              	.LBB7:
 139:Z:/MOP/c-code/mop/SuperPedro\Pedro.c **** 					}
 140:Z:/MOP/c-code/mop/SuperPedro\Pedro.c **** 					else{
 141:Z:/MOP/c-code/mop/SuperPedro\Pedro.c **** 						unsigned char* adress = (man+((j-1)*object->width)+i);
 871              		.loc 1 141 0
 872 0284 2620     		movs	r0, #38
 873 0286 3B18     		adds	r3, r7, r0
 874 0288 1B78     		ldrb	r3, [r3]
 875 028a 5A1E     		subs	r2, r3, #1
 876 028c 7B68     		ldr	r3, [r7, #4]
 877 028e 5B68     		ldr	r3, [r3, #4]
 878 0290 5343     		muls	r3, r2
 879 0292 1A00     		movs	r2, r3
 880 0294 2723     		movs	r3, #39
 881 0296 FB18     		adds	r3, r7, r3
 882 0298 1B78     		ldrb	r3, [r3]
 883 029a D318     		adds	r3, r2, r3
 884 029c 3A6A     		ldr	r2, [r7, #32]
 885 029e D318     		adds	r3, r2, r3
 886 02a0 BB61     		str	r3, [r7, #24]
 142:Z:/MOP/c-code/mop/SuperPedro\Pedro.c **** 						unsigned char byte = *adress;
 887              		.loc 1 142 0
 888 02a2 2521     		movs	r1, #37
 889 02a4 7B18     		adds	r3, r7, r1
 890 02a6 BA69     		ldr	r2, [r7, #24]
 891 02a8 1278     		ldrb	r2, [r2]
 892 02aa 1A70     		strb	r2, [r3]
 143:Z:/MOP/c-code/mop/SuperPedro\Pedro.c **** 						byte = byte>>(shift);
 893              		.loc 1 143 0
 894 02ac 7B18     		adds	r3, r7, r1
 895 02ae 1A78     		ldrb	r2, [r3]
 896 02b0 FB69     		ldr	r3, [r7, #28]
 897 02b2 1A41     		asrs	r2, r2, r3
 898 02b4 7B18     		adds	r3, r7, r1
 899 02b6 1A70     		strb	r2, [r3]
 144:Z:/MOP/c-code/mop/SuperPedro\Pedro.c **** 						if(j < (object->height)/8){
 900              		.loc 1 144 0
 901 02b8 3B18     		adds	r3, r7, r0
 902 02ba 1A78     		ldrb	r2, [r3]
 903 02bc 7B68     		ldr	r3, [r7, #4]
 904 02be 1B68     		ldr	r3, [r3]
 905 02c0 002B     		cmp	r3, #0
 906 02c2 00DA     		bge	.L37
 907 02c4 0733     		adds	r3, r3, #7
 908              	.L37:
 909 02c6 DB10     		asrs	r3, r3, #3
 910 02c8 9A42     		cmp	r2, r3
 911 02ca 27DA     		bge	.L38
 912              	.LBB8:
 145:Z:/MOP/c-code/mop/SuperPedro\Pedro.c **** 							unsigned char tillagg = *(adress+object->width);
 913              		.loc 1 145 0
 914 02cc 7B68     		ldr	r3, [r7, #4]
 915 02ce 5B68     		ldr	r3, [r3, #4]
 916 02d0 1A00     		movs	r2, r3
 917 02d2 BB69     		ldr	r3, [r7, #24]
 918 02d4 9A18     		adds	r2, r3, r2
 919 02d6 1721     		movs	r1, #23
 920 02d8 7B18     		adds	r3, r7, r1
 921 02da 1278     		ldrb	r2, [r2]
 922 02dc 1A70     		strb	r2, [r3]
 146:Z:/MOP/c-code/mop/SuperPedro\Pedro.c **** 							tillagg &= (0xFF>>(8-shift));		//nollställer överblivna bitar som ej ingår i bildförskju
 923              		.loc 1 146 0
 924 02de FB69     		ldr	r3, [r7, #28]
 925 02e0 0822     		movs	r2, #8
 926 02e2 D31A     		subs	r3, r2, r3
 927 02e4 FF22     		movs	r2, #255
 928 02e6 1A41     		asrs	r2, r2, r3
 929 02e8 1300     		movs	r3, r2
 930 02ea 5BB2     		sxtb	r3, r3
 931 02ec 0800     		movs	r0, r1
 932 02ee 3A18     		adds	r2, r7, r0
 933 02f0 1278     		ldrb	r2, [r2]
 934 02f2 52B2     		sxtb	r2, r2
 935 02f4 1340     		ands	r3, r2
 936 02f6 5AB2     		sxtb	r2, r3
 937 02f8 3B18     		adds	r3, r7, r0
 938 02fa 1A70     		strb	r2, [r3]
 147:Z:/MOP/c-code/mop/SuperPedro\Pedro.c **** 							tillagg = tillagg<<(8-shift);
 939              		.loc 1 147 0
 940 02fc 3B18     		adds	r3, r7, r0
 941 02fe 1A78     		ldrb	r2, [r3]
 942 0300 FB69     		ldr	r3, [r7, #28]
 943 0302 0821     		movs	r1, #8
 944 0304 CB1A     		subs	r3, r1, r3
 945 0306 9A40     		lsls	r2, r2, r3
 946 0308 3B18     		adds	r3, r7, r0
 947 030a 1A70     		strb	r2, [r3]
 148:Z:/MOP/c-code/mop/SuperPedro\Pedro.c **** 							byte |= tillagg;
 948              		.loc 1 148 0
 949 030c 2522     		movs	r2, #37
 950 030e BB18     		adds	r3, r7, r2
 951 0310 B918     		adds	r1, r7, r2
 952 0312 3A18     		adds	r2, r7, r0
 953 0314 0978     		ldrb	r1, [r1]
 954 0316 1278     		ldrb	r2, [r2]
 955 0318 0A43     		orrs	r2, r1
 956 031a 1A70     		strb	r2, [r3]
 957              	.L38:
 958              	.LBE8:
 149:Z:/MOP/c-code/mop/SuperPedro\Pedro.c **** 						}
 150:Z:/MOP/c-code/mop/SuperPedro\Pedro.c **** 						byte |= backBuffer[64+(object->posx)+i][7-(object->posy)/8];
 959              		.loc 1 150 0
 960 031c 7B68     		ldr	r3, [r7, #4]
 961 031e 9B68     		ldr	r3, [r3, #8]
 962 0320 4033     		adds	r3, r3, #64
 963 0322 1A00     		movs	r2, r3
 964 0324 2723     		movs	r3, #39
 965 0326 FB18     		adds	r3, r7, r3
 966 0328 1B78     		ldrb	r3, [r3]
 967 032a D218     		adds	r2, r2, r3
 968 032c 7B68     		ldr	r3, [r7, #4]
 969 032e DB68     		ldr	r3, [r3, #12]
 970 0330 002B     		cmp	r3, #0
 971 0332 00DA     		bge	.L39
 972 0334 0733     		adds	r3, r3, #7
 973              	.L39:
 974 0336 DB10     		asrs	r3, r3, #3
 975 0338 5B42     		rsbs	r3, r3, #0
 976 033a 0733     		adds	r3, r3, #7
 977 033c 1B49     		ldr	r1, .L43+4
 978 033e D200     		lsls	r2, r2, #3
 979 0340 8A18     		adds	r2, r1, r2
 980 0342 D15C     		ldrb	r1, [r2, r3]
 981 0344 2520     		movs	r0, #37
 982 0346 3B18     		adds	r3, r7, r0
 983 0348 3A18     		adds	r2, r7, r0
 984 034a 1278     		ldrb	r2, [r2]
 985 034c 0A43     		orrs	r2, r1
 986 034e 1A70     		strb	r2, [r3]
 151:Z:/MOP/c-code/mop/SuperPedro\Pedro.c **** 						graphic_write_data(byte, B_CS1);
 987              		.loc 1 151 0
 988 0350 3B18     		adds	r3, r7, r0
 989 0352 1B78     		ldrb	r3, [r3]
 990 0354 0821     		movs	r1, #8
 991 0356 1800     		movs	r0, r3
 992 0358 FFF7FEFF 		bl	graphic_write_data
 993              	.L36:
 994              	.LBE7:
 133:Z:/MOP/c-code/mop/SuperPedro\Pedro.c **** 					if(j == 0){
 995              		.loc 1 133 0 discriminator 2
 996 035c 2721     		movs	r1, #39
 997 035e 7B18     		adds	r3, r7, r1
 998 0360 1A78     		ldrb	r2, [r3]
 999 0362 7B18     		adds	r3, r7, r1
 1000 0364 0132     		adds	r2, r2, #1
 1001 0366 1A70     		strb	r2, [r3]
 1002              	.L34:
 133:Z:/MOP/c-code/mop/SuperPedro\Pedro.c **** 					if(j == 0){
 1003              		.loc 1 133 0 is_stmt 0 discriminator 1
 1004 0368 2723     		movs	r3, #39
 1005 036a FB18     		adds	r3, r7, r3
 1006 036c 1A78     		ldrb	r2, [r3]
 1007 036e 7B68     		ldr	r3, [r7, #4]
 1008 0370 5B68     		ldr	r3, [r3, #4]
 1009 0372 9A42     		cmp	r2, r3
 1010 0374 00DA     		bge	.LCB587
 1011 0376 5EE7     		b	.L40	@long jump
 1012              	.LCB587:
 1013              	.L32:
 129:Z:/MOP/c-code/mop/SuperPedro\Pedro.c **** 			if(!(object->posy+object->height > 64 && j < ((64-object->posy)/8))){						//If page is over his
 1014              		.loc 1 129 0 is_stmt 1 discriminator 2
 1015 0378 2621     		movs	r1, #38
 1016 037a 7B18     		adds	r3, r7, r1
 1017 037c 1A78     		ldrb	r2, [r3]
 1018 037e 7B18     		adds	r3, r7, r1
 1019 0380 0132     		adds	r2, r2, #1
 1020 0382 1A70     		strb	r2, [r3]
 1021              	.L29:
 129:Z:/MOP/c-code/mop/SuperPedro\Pedro.c **** 			if(!(object->posy+object->height > 64 && j < ((64-object->posy)/8))){						//If page is over his
 1022              		.loc 1 129 0 is_stmt 0 discriminator 1
 1023 0384 2623     		movs	r3, #38
 1024 0386 FB18     		adds	r3, r7, r3
 1025 0388 1A78     		ldrb	r2, [r3]
 1026 038a 7B68     		ldr	r3, [r7, #4]
 1027 038c 1B68     		ldr	r3, [r3]
 1028 038e 002B     		cmp	r3, #0
 1029 0390 00DA     		bge	.L41
 1030 0392 0733     		adds	r3, r3, #7
 1031              	.L41:
 1032 0394 DB10     		asrs	r3, r3, #3
 1033 0396 0133     		adds	r3, r3, #1
 1034 0398 9A42     		cmp	r2, r3
 1035 039a 00DA     		bge	.LCB611
 1036 039c 0DE7     		b	.L42	@long jump
 1037              	.LCB611:
 152:Z:/MOP/c-code/mop/SuperPedro\Pedro.c **** 					}
 153:Z:/MOP/c-code/mop/SuperPedro\Pedro.c **** 				}
 154:Z:/MOP/c-code/mop/SuperPedro\Pedro.c **** 			}
 155:Z:/MOP/c-code/mop/SuperPedro\Pedro.c ****         }
 156:Z:/MOP/c-code/mop/SuperPedro\Pedro.c **** }
 1038              		.loc 1 156 0 is_stmt 1
 1039 039e C046     		nop
 1040 03a0 BD46     		mov	sp, r7
 1041 03a2 0AB0     		add	sp, sp, #40
 1042              		@ sp needed
 1043 03a4 80BD     		pop	{r7, pc}
 1044              	.L44:
 1045 03a6 C046     		.align	2
 1046              	.L43:
 1047 03a8 07000080 		.word	-2147483641
 1048 03ac 00000000 		.word	backBuffer
 1049              		.cfi_endproc
 1050              	.LFE4:
 1052              		.align	1
 1053              		.global	touchesPepper
 1054              		.syntax unified
 1055              		.code	16
 1056              		.thumb_func
 1057              		.fpu softvfp
 1059              	touchesPepper:
 1060              	.LFB5:
 157:Z:/MOP/c-code/mop/SuperPedro\Pedro.c **** 
 158:Z:/MOP/c-code/mop/SuperPedro\Pedro.c **** char touchesPepper(){
 1061              		.loc 1 158 0
 1062              		.cfi_startproc
 1063              		@ args = 0, pretend = 0, frame = 0
 1064              		@ frame_needed = 1, uses_anonymous_args = 0
 1065 03b0 80B5     		push	{r7, lr}
 1066              		.cfi_def_cfa_offset 8
 1067              		.cfi_offset 7, -8
 1068              		.cfi_offset 14, -4
 1069 03b2 00AF     		add	r7, sp, #0
 1070              		.cfi_def_cfa_register 7
 159:Z:/MOP/c-code/mop/SuperPedro\Pedro.c ****     //kolla nedre hörnen (om Pedro bredare än 16px även i mitten) först, om pixeln är 1 -> Ped
 160:Z:/MOP/c-code/mop/SuperPedro\Pedro.c ****     //jfr pedrobyte & backbufferbyte
 161:Z:/MOP/c-code/mop/SuperPedro\Pedro.c ****     return 0;
 1071              		.loc 1 161 0
 1072 03b4 0023     		movs	r3, #0
 162:Z:/MOP/c-code/mop/SuperPedro\Pedro.c **** }
 1073              		.loc 1 162 0
 1074 03b6 1800     		movs	r0, r3
 1075 03b8 BD46     		mov	sp, r7
 1076              		@ sp needed
 1077 03ba 80BD     		pop	{r7, pc}
 1078              		.cfi_endproc
 1079              	.LFE5:
 1081              		.align	1
 1082              		.global	getDistance
 1083              		.syntax unified
 1084              		.code	16
 1085              		.thumb_func
 1086              		.fpu softvfp
 1088              	getDistance:
 1089              	.LFB6:
 163:Z:/MOP/c-code/mop/SuperPedro\Pedro.c **** 
 164:Z:/MOP/c-code/mop/SuperPedro\Pedro.c **** int getDistance(){
 1090              		.loc 1 164 0
 1091              		.cfi_startproc
 1092              		@ args = 0, pretend = 0, frame = 0
 1093              		@ frame_needed = 1, uses_anonymous_args = 0
 1094 03bc 80B5     		push	{r7, lr}
 1095              		.cfi_def_cfa_offset 8
 1096              		.cfi_offset 7, -8
 1097              		.cfi_offset 14, -4
 1098 03be 00AF     		add	r7, sp, #0
 1099              		.cfi_def_cfa_register 7
 165:Z:/MOP/c-code/mop/SuperPedro\Pedro.c ****     return Pedro.distance;
 1100              		.loc 1 165 0
 1101 03c0 024B     		ldr	r3, .L49
 1102 03c2 1B6A     		ldr	r3, [r3, #32]
 166:Z:/MOP/c-code/mop/SuperPedro\Pedro.c **** }
 1103              		.loc 1 166 0
 1104 03c4 1800     		movs	r0, r3
 1105 03c6 BD46     		mov	sp, r7
 1106              		@ sp needed
 1107 03c8 80BD     		pop	{r7, pc}
 1108              	.L50:
 1109 03ca C046     		.align	2
 1110              	.L49:
 1111 03cc 40010000 		.word	Pedro
 1112              		.cfi_endproc
 1113              	.LFE6:
 1115              	.Letext0:
 1116              		.file 2 "Z:/MOP/c-code/mop/SuperPedro/pedro.h"
