   1              		.arch armv6-m
   2              		.eabi_attribute 20, 1
   3              		.eabi_attribute 21, 1
   4              		.eabi_attribute 23, 3
   5              		.eabi_attribute 24, 1
   6              		.eabi_attribute 25, 1
   7              		.eabi_attribute 26, 1
   8              		.eabi_attribute 30, 6
   9              		.eabi_attribute 34, 0
  10              		.eabi_attribute 18, 4
  11              		.file	"Pedro.c"
  12              		.text
  13              	.Ltext0:
  14              		.cfi_sections	.debug_frame
  15              		.comm	BUF,160,8
  16              		.data
  17              		.align	2
  20              	pedro_still:
  21 0000 00       		.byte	0
  22 0001 E0       		.byte	-32
  23 0002 F0       		.byte	-16
  24 0003 F8       		.byte	-8
  25 0004 FC       		.byte	-4
  26 0005 FE       		.byte	-2
  27 0006 FE       		.byte	-2
  28 0007 FF       		.byte	-1
  29 0008 FF       		.byte	-1
  30 0009 7F       		.byte	127
  31 000a 1F       		.byte	31
  32 000b 1F       		.byte	31
  33 000c 0F       		.byte	15
  34 000d 0E       		.byte	14
  35 000e 1C       		.byte	28
  36 000f 18       		.byte	24
  37 0010 30       		.byte	48
  38 0011 60       		.byte	96
  39 0012 80       		.byte	-128
  40 0013 00       		.byte	0
  41 0014 1F       		.byte	31
  42 0015 7F       		.byte	127
  43 0016 FF       		.byte	-1
  44 0017 C7       		.byte	-57
  45 0018 1F       		.byte	31
  46 0019 1F       		.byte	31
  47 001a 83       		.byte	-125
  48 001b 01       		.byte	1
  49 001c 0B       		.byte	11
  50 001d 04       		.byte	4
  51 001e 24       		.byte	36
  52 001f 34       		.byte	52
  53 0020 04       		.byte	4
  54 0021 00       		.byte	0
  55 0022 00       		.byte	0
  56 0023 24       		.byte	36
  57 0024 72       		.byte	114
  58 0025 82       		.byte	-126
  59 0026 07       		.byte	7
  60 0027 F8       		.byte	-8
  61 0028 00       		.byte	0
  62 0029 00       		.byte	0
  63 002a 01       		.byte	1
  64 002b 03       		.byte	3
  65 002c 86       		.byte	-122
  66 002d 4C       		.byte	76
  67 002e 31       		.byte	49
  68 002f 22       		.byte	34
  69 0030 40       		.byte	64
  70 0031 80       		.byte	-128
  71 0032 8C       		.byte	-116
  72 0033 14       		.byte	20
  73 0034 28       		.byte	40
  74 0035 38       		.byte	56
  75 0036 28       		.byte	40
  76 0037 1A       		.byte	26
  77 0038 02       		.byte	2
  78 0039 01       		.byte	1
  79 003a F8       		.byte	-8
  80 003b 07       		.byte	7
  81 003c 00       		.byte	0
  82 003d 00       		.byte	0
  83 003e 00       		.byte	0
  84 003f 06       		.byte	6
  85 0040 09       		.byte	9
  86 0041 06       		.byte	6
  87 0042 7B       		.byte	123
  88 0043 A4       		.byte	-92
  89 0044 A4       		.byte	-92
  90 0045 D5       		.byte	-43
  91 0046 3E       		.byte	62
  92 0047 E5       		.byte	-27
  93 0048 A5       		.byte	-91
  94 0049 BE       		.byte	-66
  95 004a C6       		.byte	-58
  96 004b 0A       		.byte	10
  97 004c 06       		.byte	6
  98 004d 01       		.byte	1
  99 004e 00       		.byte	0
 100 004f 00       		.byte	0
 101              		.align	2
 104              	pedro_jump:
 105 0050 00       		.byte	0
 106 0051 E0       		.byte	-32
 107 0052 F0       		.byte	-16
 108 0053 F8       		.byte	-8
 109 0054 FC       		.byte	-4
 110 0055 FE       		.byte	-2
 111 0056 FE       		.byte	-2
 112 0057 FF       		.byte	-1
 113 0058 FF       		.byte	-1
 114 0059 7F       		.byte	127
 115 005a 1F       		.byte	31
 116 005b 1F       		.byte	31
 117 005c 0F       		.byte	15
 118 005d 0E       		.byte	14
 119 005e 1C       		.byte	28
 120 005f 18       		.byte	24
 121 0060 30       		.byte	48
 122 0061 60       		.byte	96
 123 0062 80       		.byte	-128
 124 0063 00       		.byte	0
 125 0064 1F       		.byte	31
 126 0065 7F       		.byte	127
 127 0066 FF       		.byte	-1
 128 0067 C7       		.byte	-57
 129 0068 1F       		.byte	31
 130 0069 1F       		.byte	31
 131 006a 83       		.byte	-125
 132 006b 01       		.byte	1
 133 006c 0B       		.byte	11
 134 006d 04       		.byte	4
 135 006e 24       		.byte	36
 136 006f 34       		.byte	52
 137 0070 04       		.byte	4
 138 0071 00       		.byte	0
 139 0072 00       		.byte	0
 140 0073 24       		.byte	36
 141 0074 72       		.byte	114
 142 0075 82       		.byte	-126
 143 0076 07       		.byte	7
 144 0077 F8       		.byte	-8
 145 0078 00       		.byte	0
 146 0079 00       		.byte	0
 147 007a 01       		.byte	1
 148 007b 03       		.byte	3
 149 007c 86       		.byte	-122
 150 007d 4C       		.byte	76
 151 007e 31       		.byte	49
 152 007f 22       		.byte	34
 153 0080 40       		.byte	64
 154 0081 80       		.byte	-128
 155 0082 8C       		.byte	-116
 156 0083 14       		.byte	20
 157 0084 28       		.byte	40
 158 0085 38       		.byte	56
 159 0086 28       		.byte	40
 160 0087 1A       		.byte	26
 161 0088 02       		.byte	2
 162 0089 01       		.byte	1
 163 008a F8       		.byte	-8
 164 008b 07       		.byte	7
 165 008c 00       		.byte	0
 166 008d 00       		.byte	0
 167 008e 00       		.byte	0
 168 008f 76       		.byte	118
 169 0090 49       		.byte	73
 170 0091 7E       		.byte	126
 171 0092 2B       		.byte	43
 172 0093 24       		.byte	36
 173 0094 14       		.byte	20
 174 0095 15       		.byte	21
 175 0096 0E       		.byte	14
 176 0097 15       		.byte	21
 177 0098 15       		.byte	21
 178 0099 26       		.byte	38
 179 009a 2A       		.byte	42
 180 009b 3A       		.byte	58
 181 009c 26       		.byte	38
 182 009d 1D       		.byte	29
 183 009e 00       		.byte	0
 184 009f 00       		.byte	0
 185              		.align	2
 188              	pedro_walk1:
 189 00a0 00       		.byte	0
 190 00a1 E0       		.byte	-32
 191 00a2 F0       		.byte	-16
 192 00a3 F8       		.byte	-8
 193 00a4 FC       		.byte	-4
 194 00a5 FE       		.byte	-2
 195 00a6 FE       		.byte	-2
 196 00a7 FF       		.byte	-1
 197 00a8 FF       		.byte	-1
 198 00a9 7F       		.byte	127
 199 00aa 1F       		.byte	31
 200 00ab 1F       		.byte	31
 201 00ac 0F       		.byte	15
 202 00ad 0E       		.byte	14
 203 00ae 1C       		.byte	28
 204 00af 18       		.byte	24
 205 00b0 30       		.byte	48
 206 00b1 60       		.byte	96
 207 00b2 80       		.byte	-128
 208 00b3 00       		.byte	0
 209 00b4 1F       		.byte	31
 210 00b5 7F       		.byte	127
 211 00b6 FF       		.byte	-1
 212 00b7 C7       		.byte	-57
 213 00b8 1F       		.byte	31
 214 00b9 1F       		.byte	31
 215 00ba 83       		.byte	-125
 216 00bb 01       		.byte	1
 217 00bc 0B       		.byte	11
 218 00bd 04       		.byte	4
 219 00be 24       		.byte	36
 220 00bf 34       		.byte	52
 221 00c0 04       		.byte	4
 222 00c1 00       		.byte	0
 223 00c2 00       		.byte	0
 224 00c3 24       		.byte	36
 225 00c4 72       		.byte	114
 226 00c5 82       		.byte	-126
 227 00c6 07       		.byte	7
 228 00c7 F8       		.byte	-8
 229 00c8 00       		.byte	0
 230 00c9 00       		.byte	0
 231 00ca 01       		.byte	1
 232 00cb 83       		.byte	-125
 233 00cc 46       		.byte	70
 234 00cd 2C       		.byte	44
 235 00ce B1       		.byte	-79
 236 00cf 22       		.byte	34
 237 00d0 40       		.byte	64
 238 00d1 80       		.byte	-128
 239 00d2 8C       		.byte	-116
 240 00d3 14       		.byte	20
 241 00d4 28       		.byte	40
 242 00d5 38       		.byte	56
 243 00d6 28       		.byte	40
 244 00d7 1A       		.byte	26
 245 00d8 02       		.byte	2
 246 00d9 01       		.byte	1
 247 00da F8       		.byte	-8
 248 00db 07       		.byte	7
 249 00dc 00       		.byte	0
 250 00dd 00       		.byte	0
 251 00de 00       		.byte	0
 252 00df 07       		.byte	7
 253 00e0 0A       		.byte	10
 254 00e1 05       		.byte	5
 255 00e2 1B       		.byte	27
 256 00e3 64       		.byte	100
 257 00e4 A4       		.byte	-92
 258 00e5 B5       		.byte	-75
 259 00e6 DE       		.byte	-34
 260 00e7 A5       		.byte	-91
 261 00e8 B5       		.byte	-75
 262 00e9 CE       		.byte	-50
 263 00ea 06       		.byte	6
 264 00eb 0A       		.byte	10
 265 00ec 06       		.byte	6
 266 00ed 01       		.byte	1
 267 00ee 00       		.byte	0
 268 00ef 00       		.byte	0
 269              		.align	2
 272              	pedro_walk2:
 273 00f0 00       		.byte	0
 274 00f1 C0       		.byte	-64
 275 00f2 E0       		.byte	-32
 276 00f3 F0       		.byte	-16
 277 00f4 F8       		.byte	-8
 278 00f5 FC       		.byte	-4
 279 00f6 FC       		.byte	-4
 280 00f7 FE       		.byte	-2
 281 00f8 FE       		.byte	-2
 282 00f9 FE       		.byte	-2
 283 00fa 3E       		.byte	62
 284 00fb 3E       		.byte	62
 285 00fc 1E       		.byte	30
 286 00fd 1C       		.byte	28
 287 00fe 38       		.byte	56
 288 00ff 30       		.byte	48
 289 0100 60       		.byte	96
 290 0101 C0       		.byte	-64
 291 0102 00       		.byte	0
 292 0103 00       		.byte	0
 293 0104 3E       		.byte	62
 294 0105 FF       		.byte	-1
 295 0106 FF       		.byte	-1
 296 0107 8F       		.byte	-113
 297 0108 3F       		.byte	63
 298 0109 3F       		.byte	63
 299 010a 07       		.byte	7
 300 010b 03       		.byte	3
 301 010c 17       		.byte	23
 302 010d 08       		.byte	8
 303 010e 48       		.byte	72
 304 010f 68       		.byte	104
 305 0110 08       		.byte	8
 306 0111 00       		.byte	0
 307 0112 00       		.byte	0
 308 0113 48       		.byte	72
 309 0114 E4       		.byte	-28
 310 0115 04       		.byte	4
 311 0116 0F       		.byte	15
 312 0117 F0       		.byte	-16
 313 0118 00       		.byte	0
 314 0119 00       		.byte	0
 315 011a 03       		.byte	3
 316 011b 07       		.byte	7
 317 011c CC       		.byte	-52
 318 011d 38       		.byte	56
 319 011e A3       		.byte	-93
 320 011f 44       		.byte	68
 321 0120 80       		.byte	-128
 322 0121 00       		.byte	0
 323 0122 18       		.byte	24
 324 0123 28       		.byte	40
 325 0124 50       		.byte	80
 326 0125 70       		.byte	112
 327 0126 50       		.byte	80
 328 0127 34       		.byte	52
 329 0128 04       		.byte	4
 330 0129 03       		.byte	3
 331 012a F0       		.byte	-16
 332 012b 0F       		.byte	15
 333 012c 00       		.byte	0
 334 012d 00       		.byte	0
 335 012e 00       		.byte	0
 336 012f 00       		.byte	0
 337 0130 00       		.byte	0
 338 0131 73       		.byte	115
 339 0132 AE       		.byte	-82
 340 0133 A5       		.byte	-91
 341 0134 D6       		.byte	-42
 342 0135 0B       		.byte	11
 343 0136 1D       		.byte	29
 344 0137 E6       		.byte	-26
 345 0138 A6       		.byte	-90
 346 0139 BC       		.byte	-68
 347 013a C4       		.byte	-60
 348 013b 04       		.byte	4
 349 013c 04       		.byte	4
 350 013d 02       		.byte	2
 351 013e 01       		.byte	1
 352 013f 00       		.byte	0
 353              		.align	3
 356              	Pedro:
 357 0140 20000000 		.word	32
 358 0144 14000000 		.word	20
 359 0148 10000000 		.word	16
 360 014c 00000000 		.word	0
 361 0150 00000000 		.word	0
 362 0154 00000000 		.word	0
 363 0158 00000000 		.word	0
 364 015c 00000000 		.word	0
 365 0160 00000000 		.word	0
 366 0164 00000000 		.word	0
 367 0168 00000000 		.word	0
 368 016c 00000000 		.word	0
 369 0170 00000000 		.word	0
 370 0174 00000000 		.word	pedro_still
 371 0178 00000000 		.word	0
 372 017c 00000000 		.word	0
 373              		.section	.rodata
 374              		.align	3
 375              	.LC2:
 376 0000 20000000 		.word	32
 377 0004 14000000 		.word	20
 378 0008 10000000 		.word	16
 379 000c 00000000 		.word	0
 380 0010 00000000 		.word	0
 381 0014 00000000 		.word	0
 382 0018 00000000 		.word	0
 383 001c 00000000 		.word	0
 384 0020 00000000 		.word	0
 385 0024 00000000 		.word	0
 386 0028 00000000 		.word	0
 387 002c 00000000 		.word	0
 388 0030 00000000 		.word	0
 389 0034 00000000 		.word	pedro_still
 390 0038 00000000 		.word	0
 391 003c 00000000 		.word	0
 392              		.text
 393              		.align	1
 394              		.global	resetPedro
 395              		.syntax unified
 396              		.code	16
 397              		.thumb_func
 398              		.fpu softvfp
 400              	resetPedro:
 401              	.LFB0:
 402              		.file 1 "Z:/MOP/c-code/mop/SuperPedro/Pedro.c"
   1:Z:/MOP/c-code/mop/SuperPedro\Pedro.c **** #include "pedro.h"
   2:Z:/MOP/c-code/mop/SuperPedro\Pedro.c **** #include "LcdAscii.h"
   3:Z:/MOP/c-code/mop/SuperPedro\Pedro.c **** 
   4:Z:/MOP/c-code/mop/SuperPedro\Pedro.c **** 
   5:Z:/MOP/c-code/mop/SuperPedro\Pedro.c **** extern char backBuffer[256][8];
   6:Z:/MOP/c-code/mop/SuperPedro\Pedro.c **** 
   7:Z:/MOP/c-code/mop/SuperPedro\Pedro.c **** 
   8:Z:/MOP/c-code/mop/SuperPedro\Pedro.c **** static volatile unsigned char pedro_still[4][20] = {{0b00000000, 0b11100000, 0b11110000, 0b11111000
   9:Z:/MOP/c-code/mop/SuperPedro\Pedro.c **** 						{0b00011111, 0b01111111, 0b11111111, 0b11000111, 0b00011111, 0b00011111, 0b10000011, 0b000000
  10:Z:/MOP/c-code/mop/SuperPedro\Pedro.c **** 						{0b00000000, 0b00000000, 0b00000001, 0b00000011, 0b10000110, 0b01001100, 0b00110001, 0b001000
  11:Z:/MOP/c-code/mop/SuperPedro\Pedro.c **** 						{0b00000000, 0b00000000, 0b00000000, 0b00000110, 0b00001001, 0b00000110, 0b01111011, 0b101001
  12:Z:/MOP/c-code/mop/SuperPedro\Pedro.c **** static volatile unsigned char pedro_jump[4][20] = {{0b00000000, 0b11100000, 0b11110000, 0b11111000,
  13:Z:/MOP/c-code/mop/SuperPedro\Pedro.c **** 						{0b00011111, 0b01111111, 0b11111111, 0b11000111, 0b00011111, 0b00011111, 0b10000011, 0b000000
  14:Z:/MOP/c-code/mop/SuperPedro\Pedro.c **** 						{0b00000000, 0b00000000, 0b00000001, 0b00000011, 0b10000110, 0b01001100, 0b00110001, 0b001000
  15:Z:/MOP/c-code/mop/SuperPedro\Pedro.c **** 						{0b00000000, 0b00000000, 0b00000000, 0b01110110, 0b01001001, 0b01111110, 0b00101011, 0b001001
  16:Z:/MOP/c-code/mop/SuperPedro\Pedro.c **** static volatile unsigned char pedro_walk1[4][20] = {{0b00000000, 0b11100000, 0b11110000, 0b11111000
  17:Z:/MOP/c-code/mop/SuperPedro\Pedro.c **** 						{0b00011111, 0b01111111, 0b11111111, 0b11000111, 0b00011111, 0b00011111, 0b10000011, 0b000000
  18:Z:/MOP/c-code/mop/SuperPedro\Pedro.c **** 						{0b00000000, 0b00000000, 0b00000001, 0b10000011, 0b01000110, 0b00101100, 0b10110001, 0b001000
  19:Z:/MOP/c-code/mop/SuperPedro\Pedro.c **** 						{0b00000000, 0b00000000, 0b00000000, 0b00000111, 0b00001010, 0b00000101, 0b00011011, 0b011001
  20:Z:/MOP/c-code/mop/SuperPedro\Pedro.c **** static volatile unsigned char pedro_walk2[4][20] = {{0b00000000, 0b11000000, 0b11100000, 0b11110000
  21:Z:/MOP/c-code/mop/SuperPedro\Pedro.c **** 						{0b00111110, 0b11111111, 0b11111111, 0b10001111, 0b00111111, 0b00111111, 0b00000111, 0b000000
  22:Z:/MOP/c-code/mop/SuperPedro\Pedro.c **** 						{0b00000000, 0b00000000, 0b00000011, 0b00000111, 0b11001100, 0b00111000, 0b10100011, 0b010001
  23:Z:/MOP/c-code/mop/SuperPedro\Pedro.c **** 						{0b00000000, 0b00000000, 0b00000000, 0b00000000, 0b00000000, 0b01110011, 0b10101110, 0b101001
  24:Z:/MOP/c-code/mop/SuperPedro\Pedro.c **** 
  25:Z:/MOP/c-code/mop/SuperPedro\Pedro.c **** 
  26:Z:/MOP/c-code/mop/SuperPedro\Pedro.c **** 
  27:Z:/MOP/c-code/mop/SuperPedro\Pedro.c **** static OBJECT Pedro = 
  28:Z:/MOP/c-code/mop/SuperPedro\Pedro.c **** {
  29:Z:/MOP/c-code/mop/SuperPedro\Pedro.c **** 	32,
  30:Z:/MOP/c-code/mop/SuperPedro\Pedro.c ****  20,				//height, width
  31:Z:/MOP/c-code/mop/SuperPedro\Pedro.c **** 	16,
  32:Z:/MOP/c-code/mop/SuperPedro\Pedro.c ****     0,				//initial startposition
  33:Z:/MOP/c-code/mop/SuperPedro\Pedro.c **** 	0,
  34:Z:/MOP/c-code/mop/SuperPedro\Pedro.c ****     0,				//Hastighet
  35:Z:/MOP/c-code/mop/SuperPedro\Pedro.c **** 	0,
  36:Z:/MOP/c-code/mop/SuperPedro\Pedro.c ****     0,				//Acceleration
  37:Z:/MOP/c-code/mop/SuperPedro\Pedro.c ****     0,
  38:Z:/MOP/c-code/mop/SuperPedro\Pedro.c **** 	&pedro_still,		//Sprite
  39:Z:/MOP/c-code/mop/SuperPedro\Pedro.c **** 	0,
  40:Z:/MOP/c-code/mop/SuperPedro\Pedro.c **** 	0 
  41:Z:/MOP/c-code/mop/SuperPedro\Pedro.c ****     /*komplettera?*/
  42:Z:/MOP/c-code/mop/SuperPedro\Pedro.c **** };
  43:Z:/MOP/c-code/mop/SuperPedro\Pedro.c **** 
  44:Z:/MOP/c-code/mop/SuperPedro\Pedro.c **** void resetPedro(){
 403              		.loc 1 44 0
 404              		.cfi_startproc
 405              		@ args = 0, pretend = 0, frame = 0
 406              		@ frame_needed = 1, uses_anonymous_args = 0
 407 0000 80B5     		push	{r7, lr}
 408              		.cfi_def_cfa_offset 8
 409              		.cfi_offset 7, -8
 410              		.cfi_offset 14, -4
 411 0002 00AF     		add	r7, sp, #0
 412              		.cfi_def_cfa_register 7
  45:Z:/MOP/c-code/mop/SuperPedro\Pedro.c ****     Pedro = (OBJECT){
 413              		.loc 1 45 0
 414 0004 054A     		ldr	r2, .L2
 415 0006 064B     		ldr	r3, .L2+4
 416 0008 1000     		movs	r0, r2
 417 000a 1900     		movs	r1, r3
 418 000c 4023     		movs	r3, #64
 419 000e 1A00     		movs	r2, r3
 420 0010 FFF7FEFF 		bl	memcpy
  46:Z:/MOP/c-code/mop/SuperPedro\Pedro.c **** 	32,
  47:Z:/MOP/c-code/mop/SuperPedro\Pedro.c ****     20,				//height, width
  48:Z:/MOP/c-code/mop/SuperPedro\Pedro.c **** 	16,
  49:Z:/MOP/c-code/mop/SuperPedro\Pedro.c ****     0,				//initial startposition
  50:Z:/MOP/c-code/mop/SuperPedro\Pedro.c **** 	0,
  51:Z:/MOP/c-code/mop/SuperPedro\Pedro.c ****     0,				//Hastighet
  52:Z:/MOP/c-code/mop/SuperPedro\Pedro.c **** 	0,
  53:Z:/MOP/c-code/mop/SuperPedro\Pedro.c ****     0,				//Acceleration
  54:Z:/MOP/c-code/mop/SuperPedro\Pedro.c ****     0,
  55:Z:/MOP/c-code/mop/SuperPedro\Pedro.c **** 	&pedro_still,		//Sprite
  56:Z:/MOP/c-code/mop/SuperPedro\Pedro.c **** 	0,
  57:Z:/MOP/c-code/mop/SuperPedro\Pedro.c **** 	0 
  58:Z:/MOP/c-code/mop/SuperPedro\Pedro.c ****     /*komplettera?*/
  59:Z:/MOP/c-code/mop/SuperPedro\Pedro.c **** };
  60:Z:/MOP/c-code/mop/SuperPedro\Pedro.c **** }
 421              		.loc 1 60 0
 422 0014 C046     		nop
 423 0016 BD46     		mov	sp, r7
 424              		@ sp needed
 425 0018 80BD     		pop	{r7, pc}
 426              	.L3:
 427 001a C046     		.align	2
 428              	.L2:
 429 001c 40010000 		.word	Pedro
 430 0020 00000000 		.word	.LC2
 431              		.cfi_endproc
 432              	.LFE0:
 434              		.global	__aeabi_dcmpgt
 435              		.global	__aeabi_d2iz
 436              		.global	__aeabi_idiv
 437              		.global	__aeabi_dcmplt
 438              		.global	__aeabi_dcmpeq
 439              		.align	1
 440              		.global	move
 441              		.syntax unified
 442              		.code	16
 443              		.thumb_func
 444              		.fpu softvfp
 446              	move:
 447              	.LFB1:
  61:Z:/MOP/c-code/mop/SuperPedro\Pedro.c **** 
  62:Z:/MOP/c-code/mop/SuperPedro\Pedro.c **** 
  63:Z:/MOP/c-code/mop/SuperPedro\Pedro.c **** void move(){								//Kollar knapptryck och uppdaterar alla Pedros v채rden
 448              		.loc 1 63 0
 449              		.cfi_startproc
 450              		@ args = 0, pretend = 0, frame = 0
 451              		@ frame_needed = 1, uses_anonymous_args = 0
 452 0024 F8B5     		push	{r3, r4, r5, r6, r7, lr}
 453              		.cfi_def_cfa_offset 24
 454              		.cfi_offset 3, -24
 455              		.cfi_offset 4, -20
 456              		.cfi_offset 5, -16
 457              		.cfi_offset 6, -12
 458              		.cfi_offset 7, -8
 459              		.cfi_offset 14, -4
 460 0026 00AF     		add	r7, sp, #0
 461              		.cfi_def_cfa_register 7
  64:Z:/MOP/c-code/mop/SuperPedro\Pedro.c ****     
  65:Z:/MOP/c-code/mop/SuperPedro\Pedro.c ****     checkKeys();
 462              		.loc 1 65 0
 463 0028 FFF7FEFF 		bl	checkKeys
  66:Z:/MOP/c-code/mop/SuperPedro\Pedro.c **** 
  67:Z:/MOP/c-code/mop/SuperPedro\Pedro.c ****     applyPhysics();
 464              		.loc 1 67 0
 465 002c FFF7FEFF 		bl	applyPhysics
  68:Z:/MOP/c-code/mop/SuperPedro\Pedro.c ****     
  69:Z:/MOP/c-code/mop/SuperPedro\Pedro.c ****     if(Pedro.velx > 0){
 466              		.loc 1 69 0
 467 0030 304B     		ldr	r3, .L16
 468 0032 1869     		ldr	r0, [r3, #16]
 469 0034 5969     		ldr	r1, [r3, #20]
 470 0036 0022     		movs	r2, #0
 471 0038 0023     		movs	r3, #0
 472 003a FFF7FEFF 		bl	__aeabi_dcmpgt
 473              	.LVL0:
 474 003e 031E     		subs	r3, r0, #0
 475 0040 17D0     		beq	.L14
 476              	.LBB2:
  70:Z:/MOP/c-code/mop/SuperPedro\Pedro.c ****         shiftLeft();
 477              		.loc 1 70 0
 478 0042 FFF7FEFF 		bl	shiftLeft
  71:Z:/MOP/c-code/mop/SuperPedro\Pedro.c ****         delaymillis(50/(int)Pedro.velx);
 479              		.loc 1 71 0
 480 0046 2B4B     		ldr	r3, .L16
 481 0048 5C69     		ldr	r4, [r3, #20]
 482 004a 1B69     		ldr	r3, [r3, #16]
 483 004c 1800     		movs	r0, r3
 484 004e 2100     		movs	r1, r4
 485 0050 FFF7FEFF 		bl	__aeabi_d2iz
 486              	.LVL1:
 487 0054 0300     		movs	r3, r0
 488 0056 1900     		movs	r1, r3
 489 0058 3220     		movs	r0, #50
 490 005a FFF7FEFF 		bl	__aeabi_idiv
 491              	.LVL2:
 492 005e 0300     		movs	r3, r0
 493 0060 1800     		movs	r0, r3
 494 0062 FFF7FEFF 		bl	delaymillis
  72:Z:/MOP/c-code/mop/SuperPedro\Pedro.c ****         Pedro.distance++;
 495              		.loc 1 72 0
 496 0066 234B     		ldr	r3, .L16
 497 0068 1B6B     		ldr	r3, [r3, #48]
 498 006a 5A1C     		adds	r2, r3, #1
 499 006c 214B     		ldr	r3, .L16
 500 006e 1A63     		str	r2, [r3, #48]
 501              	.LBE2:
 502 0070 25E0     		b	.L7
 503              	.L14:
  73:Z:/MOP/c-code/mop/SuperPedro\Pedro.c ****     }
  74:Z:/MOP/c-code/mop/SuperPedro\Pedro.c ****     else if(Pedro.velx < 0){
 504              		.loc 1 74 0
 505 0072 204B     		ldr	r3, .L16
 506 0074 1869     		ldr	r0, [r3, #16]
 507 0076 5969     		ldr	r1, [r3, #20]
 508 0078 0022     		movs	r2, #0
 509 007a 0023     		movs	r3, #0
 510 007c FFF7FEFF 		bl	__aeabi_dcmplt
 511              	.LVL3:
 512 0080 031E     		subs	r3, r0, #0
 513 0082 1CD0     		beq	.L7
 514              	.LBB3:
  75:Z:/MOP/c-code/mop/SuperPedro\Pedro.c ****         shiftRight();
 515              		.loc 1 75 0
 516 0084 FFF7FEFF 		bl	shiftRight
  76:Z:/MOP/c-code/mop/SuperPedro\Pedro.c ****         delaymillis(50/(int)(-Pedro.velx));
 517              		.loc 1 76 0
 518 0088 1A4B     		ldr	r3, .L16
 519 008a 5C69     		ldr	r4, [r3, #20]
 520 008c 1B69     		ldr	r3, [r3, #16]
 521 008e 1A00     		movs	r2, r3
 522 0090 1500     		movs	r5, r2
 523 0092 8022     		movs	r2, #128
 524 0094 1206     		lsls	r2, r2, #24
 525 0096 6240     		eors	r2, r4
 526 0098 1600     		movs	r6, r2
 527 009a 2800     		movs	r0, r5
 528 009c 3100     		movs	r1, r6
 529 009e FFF7FEFF 		bl	__aeabi_d2iz
 530              	.LVL4:
 531 00a2 0300     		movs	r3, r0
 532 00a4 1900     		movs	r1, r3
 533 00a6 3220     		movs	r0, #50
 534 00a8 FFF7FEFF 		bl	__aeabi_idiv
 535              	.LVL5:
 536 00ac 0300     		movs	r3, r0
 537 00ae 1800     		movs	r0, r3
 538 00b0 FFF7FEFF 		bl	delaymillis
  77:Z:/MOP/c-code/mop/SuperPedro\Pedro.c ****         Pedro.distance--;
 539              		.loc 1 77 0
 540 00b4 0F4B     		ldr	r3, .L16
 541 00b6 1B6B     		ldr	r3, [r3, #48]
 542 00b8 5A1E     		subs	r2, r3, #1
 543 00ba 0E4B     		ldr	r3, .L16
 544 00bc 1A63     		str	r2, [r3, #48]
 545              	.L7:
 546              	.LBE3:
  78:Z:/MOP/c-code/mop/SuperPedro\Pedro.c **** 
  79:Z:/MOP/c-code/mop/SuperPedro\Pedro.c ****     }
  80:Z:/MOP/c-code/mop/SuperPedro\Pedro.c **** 
  81:Z:/MOP/c-code/mop/SuperPedro\Pedro.c ****     if(Pedro.velx != 0 || Pedro.vely != 0){
 547              		.loc 1 81 0
 548 00be 0D4B     		ldr	r3, .L16
 549 00c0 1869     		ldr	r0, [r3, #16]
 550 00c2 5969     		ldr	r1, [r3, #20]
 551 00c4 0022     		movs	r2, #0
 552 00c6 0023     		movs	r3, #0
 553 00c8 FFF7FEFF 		bl	__aeabi_dcmpeq
 554              	.LVL6:
 555 00cc 031E     		subs	r3, r0, #0
 556 00ce 09D0     		beq	.L9
 557              		.loc 1 81 0 is_stmt 0 discriminator 1
 558 00d0 084B     		ldr	r3, .L16
 559 00d2 9869     		ldr	r0, [r3, #24]
 560 00d4 D969     		ldr	r1, [r3, #28]
 561 00d6 0022     		movs	r2, #0
 562 00d8 0023     		movs	r3, #0
 563 00da FFF7FEFF 		bl	__aeabi_dcmpeq
 564              	.LVL7:
 565 00de 031E     		subs	r3, r0, #0
 566 00e0 00D0     		beq	.L9
  82:Z:/MOP/c-code/mop/SuperPedro\Pedro.c ****         //draw2();
  83:Z:/MOP/c-code/mop/SuperPedro\Pedro.c ****         graphic_draw_screen();
  84:Z:/MOP/c-code/mop/SuperPedro\Pedro.c ****         draw();  //extra args? FLYTTA? han kan ritas ut med resten av sk채rmen_____________________
  85:Z:/MOP/c-code/mop/SuperPedro\Pedro.c ****     }
  86:Z:/MOP/c-code/mop/SuperPedro\Pedro.c ****     
  87:Z:/MOP/c-code/mop/SuperPedro\Pedro.c **** }
 567              		.loc 1 87 0 is_stmt 1 discriminator 1
 568 00e2 03E0     		b	.L15
 569              	.L9:
  83:Z:/MOP/c-code/mop/SuperPedro\Pedro.c ****         draw();  //extra args? FLYTTA? han kan ritas ut med resten av sk채rmen_____________________
 570              		.loc 1 83 0
 571 00e4 FFF7FEFF 		bl	graphic_draw_screen
  84:Z:/MOP/c-code/mop/SuperPedro\Pedro.c ****     }
 572              		.loc 1 84 0
 573 00e8 FFF7FEFF 		bl	draw
 574              	.L15:
 575              		.loc 1 87 0
 576 00ec C046     		nop
 577 00ee BD46     		mov	sp, r7
 578              		@ sp needed
 579 00f0 F8BD     		pop	{r3, r4, r5, r6, r7, pc}
 580              	.L17:
 581 00f2 C046     		.align	2
 582              	.L16:
 583 00f4 40010000 		.word	Pedro
 584              		.cfi_endproc
 585              	.LFE1:
 587              		.global	__aeabi_dsub
 588              		.global	__aeabi_dadd
 589              		.align	1
 590              		.global	checkKeys
 591              		.syntax unified
 592              		.code	16
 593              		.thumb_func
 594              		.fpu softvfp
 596              	checkKeys:
 597              	.LFB2:
  88:Z:/MOP/c-code/mop/SuperPedro\Pedro.c **** 
  89:Z:/MOP/c-code/mop/SuperPedro\Pedro.c **** //check keypresses and change pedros properties (acceleration for <- ^ -> and velocity for ^) accor
  90:Z:/MOP/c-code/mop/SuperPedro\Pedro.c **** void checkKeys(){
 598              		.loc 1 90 0
 599              		.cfi_startproc
 600              		@ args = 0, pretend = 0, frame = 0
 601              		@ frame_needed = 1, uses_anonymous_args = 0
 602 00f8 B0B5     		push	{r4, r5, r7, lr}
 603              		.cfi_def_cfa_offset 16
 604              		.cfi_offset 4, -16
 605              		.cfi_offset 5, -12
 606              		.cfi_offset 7, -8
 607              		.cfi_offset 14, -4
 608 00fa 00AF     		add	r7, sp, #0
 609              		.cfi_def_cfa_register 7
 610              	.LBB4:
  91:Z:/MOP/c-code/mop/SuperPedro\Pedro.c ****     if(isRightKey() && !isLeftKey()){     //Kr채ver importerad keyb
 611              		.loc 1 91 0
 612 00fc FFF7FEFF 		bl	isRightKey
 613 0100 031E     		subs	r3, r0, #0
 614 0102 18D0     		beq	.L19
 615              		.loc 1 91 0 is_stmt 0 discriminator 1
 616 0104 FFF7FEFF 		bl	isLeftKey
 617 0108 031E     		subs	r3, r0, #0
 618 010a 14D1     		bne	.L19
  92:Z:/MOP/c-code/mop/SuperPedro\Pedro.c **** 		if(Pedro.velx < MAX_VELX){
 619              		.loc 1 92 0 is_stmt 1
 620 010c 484B     		ldr	r3, .L38
 621 010e 1869     		ldr	r0, [r3, #16]
 622 0110 5969     		ldr	r1, [r3, #20]
 623 0112 0022     		movs	r2, #0
 624 0114 474B     		ldr	r3, .L38+4
 625 0116 FFF7FEFF 		bl	__aeabi_dcmplt
 626              	.LVL8:
 627 011a 031E     		subs	r3, r0, #0
 628 011c 05D0     		beq	.L36
  93:Z:/MOP/c-code/mop/SuperPedro\Pedro.c **** 			Pedro.accx = ACCX;     //accelerate right
 629              		.loc 1 93 0
 630 011e 444A     		ldr	r2, .L38
 631 0120 0023     		movs	r3, #0
 632 0122 454C     		ldr	r4, .L38+8
 633 0124 1362     		str	r3, [r2, #32]
 634 0126 5462     		str	r4, [r2, #36]
  92:Z:/MOP/c-code/mop/SuperPedro\Pedro.c **** 		if(Pedro.velx < MAX_VELX){
 635              		.loc 1 92 0
 636 0128 52E0     		b	.L23
 637              	.L36:
  94:Z:/MOP/c-code/mop/SuperPedro\Pedro.c **** 		}
  95:Z:/MOP/c-code/mop/SuperPedro\Pedro.c **** 		else{
  96:Z:/MOP/c-code/mop/SuperPedro\Pedro.c **** 			Pedro.accx = 0;
 638              		.loc 1 96 0
 639 012a 414A     		ldr	r2, .L38
 640 012c 0023     		movs	r3, #0
 641 012e 0024     		movs	r4, #0
 642 0130 1362     		str	r3, [r2, #32]
 643 0132 5462     		str	r4, [r2, #36]
  92:Z:/MOP/c-code/mop/SuperPedro\Pedro.c **** 			Pedro.accx = ACCX;     //accelerate right
 644              		.loc 1 92 0
 645 0134 4CE0     		b	.L23
 646              	.L19:
  97:Z:/MOP/c-code/mop/SuperPedro\Pedro.c **** 		}
  98:Z:/MOP/c-code/mop/SuperPedro\Pedro.c **** 	}
  99:Z:/MOP/c-code/mop/SuperPedro\Pedro.c **** 	else if(!isRightKey() && isLeftKey())
 647              		.loc 1 99 0
 648 0136 FFF7FEFF 		bl	isRightKey
 649 013a 031E     		subs	r3, r0, #0
 650 013c 19D1     		bne	.L24
 651              		.loc 1 99 0 is_stmt 0 discriminator 1
 652 013e FFF7FEFF 		bl	isLeftKey
 653 0142 031E     		subs	r3, r0, #0
 654 0144 15D0     		beq	.L24
 100:Z:/MOP/c-code/mop/SuperPedro\Pedro.c **** 	{
 101:Z:/MOP/c-code/mop/SuperPedro\Pedro.c **** 		if((int)Pedro.velx > -MAX_VELX){
 655              		.loc 1 101 0 is_stmt 1
 656 0146 3A4B     		ldr	r3, .L38
 657 0148 5C69     		ldr	r4, [r3, #20]
 658 014a 1B69     		ldr	r3, [r3, #16]
 659 014c 1800     		movs	r0, r3
 660 014e 2100     		movs	r1, r4
 661 0150 FFF7FEFF 		bl	__aeabi_d2iz
 662              	.LVL9:
 663 0154 0300     		movs	r3, r0
 664 0156 0D33     		adds	r3, r3, #13
 665 0158 05DB     		blt	.L25
 102:Z:/MOP/c-code/mop/SuperPedro\Pedro.c **** 			Pedro.accx = -ACCX;    //accelerate left
 666              		.loc 1 102 0
 667 015a 354A     		ldr	r2, .L38
 668 015c 0023     		movs	r3, #0
 669 015e 374C     		ldr	r4, .L38+12
 670 0160 1362     		str	r3, [r2, #32]
 671 0162 5462     		str	r4, [r2, #36]
 101:Z:/MOP/c-code/mop/SuperPedro\Pedro.c **** 			Pedro.accx = -ACCX;    //accelerate left
 672              		.loc 1 101 0
 673 0164 34E0     		b	.L23
 674              	.L25:
 103:Z:/MOP/c-code/mop/SuperPedro\Pedro.c **** 		}
 104:Z:/MOP/c-code/mop/SuperPedro\Pedro.c **** 		else{
 105:Z:/MOP/c-code/mop/SuperPedro\Pedro.c **** 			Pedro.accx = 0;
 675              		.loc 1 105 0
 676 0166 324A     		ldr	r2, .L38
 677 0168 0023     		movs	r3, #0
 678 016a 0024     		movs	r4, #0
 679 016c 1362     		str	r3, [r2, #32]
 680 016e 5462     		str	r4, [r2, #36]
 101:Z:/MOP/c-code/mop/SuperPedro\Pedro.c **** 			Pedro.accx = -ACCX;    //accelerate left
 681              		.loc 1 101 0
 682 0170 2EE0     		b	.L23
 683              	.L24:
 106:Z:/MOP/c-code/mop/SuperPedro\Pedro.c **** 		}
 107:Z:/MOP/c-code/mop/SuperPedro\Pedro.c **** 	}
 108:Z:/MOP/c-code/mop/SuperPedro\Pedro.c **** 	else                            //decrease velocity
 109:Z:/MOP/c-code/mop/SuperPedro\Pedro.c **** 	{
 110:Z:/MOP/c-code/mop/SuperPedro\Pedro.c **** 		Pedro.accx = 0;
 684              		.loc 1 110 0
 685 0172 2F4A     		ldr	r2, .L38
 686 0174 0023     		movs	r3, #0
 687 0176 0024     		movs	r4, #0
 688 0178 1362     		str	r3, [r2, #32]
 689 017a 5462     		str	r4, [r2, #36]
 111:Z:/MOP/c-code/mop/SuperPedro\Pedro.c **** 		if(Pedro.velx > 0){
 690              		.loc 1 111 0
 691 017c 2C4B     		ldr	r3, .L38
 692 017e 1869     		ldr	r0, [r3, #16]
 693 0180 5969     		ldr	r1, [r3, #20]
 694 0182 0022     		movs	r2, #0
 695 0184 0023     		movs	r3, #0
 696 0186 FFF7FEFF 		bl	__aeabi_dcmpgt
 697              	.LVL10:
 698 018a 031E     		subs	r3, r0, #0
 699 018c 0BD0     		beq	.L27
 112:Z:/MOP/c-code/mop/SuperPedro\Pedro.c **** 			Pedro.velx -= ACCX;
 700              		.loc 1 112 0
 701 018e 284B     		ldr	r3, .L38
 702 0190 1869     		ldr	r0, [r3, #16]
 703 0192 5969     		ldr	r1, [r3, #20]
 704 0194 0022     		movs	r2, #0
 705 0196 284B     		ldr	r3, .L38+8
 706 0198 FFF7FEFF 		bl	__aeabi_dsub
 707              	.LVL11:
 708 019c 0300     		movs	r3, r0
 709 019e 0C00     		movs	r4, r1
 710 01a0 234A     		ldr	r2, .L38
 711 01a2 1361     		str	r3, [r2, #16]
 712 01a4 5461     		str	r4, [r2, #20]
 713              	.L27:
 113:Z:/MOP/c-code/mop/SuperPedro\Pedro.c **** 		}
 114:Z:/MOP/c-code/mop/SuperPedro\Pedro.c **** 		if(Pedro.velx < 0){
 714              		.loc 1 114 0
 715 01a6 224B     		ldr	r3, .L38
 716 01a8 1869     		ldr	r0, [r3, #16]
 717 01aa 5969     		ldr	r1, [r3, #20]
 718 01ac 0022     		movs	r2, #0
 719 01ae 0023     		movs	r3, #0
 720 01b0 FFF7FEFF 		bl	__aeabi_dcmplt
 721              	.LVL12:
 722 01b4 031E     		subs	r3, r0, #0
 723 01b6 0BD0     		beq	.L23
 115:Z:/MOP/c-code/mop/SuperPedro\Pedro.c **** 			Pedro.velx += ACCX;
 724              		.loc 1 115 0
 725 01b8 1D4B     		ldr	r3, .L38
 726 01ba 1869     		ldr	r0, [r3, #16]
 727 01bc 5969     		ldr	r1, [r3, #20]
 728 01be 0022     		movs	r2, #0
 729 01c0 1D4B     		ldr	r3, .L38+8
 730 01c2 FFF7FEFF 		bl	__aeabi_dadd
 731              	.LVL13:
 732 01c6 0300     		movs	r3, r0
 733 01c8 0C00     		movs	r4, r1
 734 01ca 194A     		ldr	r2, .L38
 735 01cc 1361     		str	r3, [r2, #16]
 736 01ce 5461     		str	r4, [r2, #20]
 737              	.L23:
 738              	.LBE4:
 116:Z:/MOP/c-code/mop/SuperPedro\Pedro.c **** 		}
 117:Z:/MOP/c-code/mop/SuperPedro\Pedro.c **** 	}
 118:Z:/MOP/c-code/mop/SuperPedro\Pedro.c ****     
 119:Z:/MOP/c-code/mop/SuperPedro\Pedro.c ****     if(Pedro.posy <= 0){
 739              		.loc 1 119 0
 740 01d0 174B     		ldr	r3, .L38
 741 01d2 DB68     		ldr	r3, [r3, #12]
 742 01d4 002B     		cmp	r3, #0
 743 01d6 0CDC     		bgt	.L30
 120:Z:/MOP/c-code/mop/SuperPedro\Pedro.c ****         Pedro.vely = 0;
 744              		.loc 1 120 0
 745 01d8 154A     		ldr	r2, .L38
 746 01da 0023     		movs	r3, #0
 747 01dc 0024     		movs	r4, #0
 748 01de 9361     		str	r3, [r2, #24]
 749 01e0 D461     		str	r4, [r2, #28]
 121:Z:/MOP/c-code/mop/SuperPedro\Pedro.c ****         Pedro.posy = 0;
 750              		.loc 1 121 0
 751 01e2 134B     		ldr	r3, .L38
 752 01e4 0022     		movs	r2, #0
 753 01e6 DA60     		str	r2, [r3, #12]
 122:Z:/MOP/c-code/mop/SuperPedro\Pedro.c ****         Pedro.accy = 0;
 754              		.loc 1 122 0
 755 01e8 114A     		ldr	r2, .L38
 756 01ea 0023     		movs	r3, #0
 757 01ec 0024     		movs	r4, #0
 758 01ee 9362     		str	r3, [r2, #40]
 759 01f0 D462     		str	r4, [r2, #44]
 760              	.L30:
 123:Z:/MOP/c-code/mop/SuperPedro\Pedro.c ****     }
 124:Z:/MOP/c-code/mop/SuperPedro\Pedro.c ****     
 125:Z:/MOP/c-code/mop/SuperPedro\Pedro.c ****     
 126:Z:/MOP/c-code/mop/SuperPedro\Pedro.c ****     if(isJumping()){
 761              		.loc 1 126 0
 762 01f2 FFF7FEFF 		bl	isJumping
 763 01f6 031E     		subs	r3, r0, #0
 764 01f8 05D0     		beq	.L31
 127:Z:/MOP/c-code/mop/SuperPedro\Pedro.c ****         Pedro.accy = ACCY;
 765              		.loc 1 127 0
 766 01fa 0D4A     		ldr	r2, .L38
 767 01fc 104B     		ldr	r3, .L38+16
 768 01fe 114C     		ldr	r4, .L38+20
 769 0200 9362     		str	r3, [r2, #40]
 770 0202 D462     		str	r4, [r2, #44]
 128:Z:/MOP/c-code/mop/SuperPedro\Pedro.c ****     }
 129:Z:/MOP/c-code/mop/SuperPedro\Pedro.c ****     else {  //Pedro on ground
 130:Z:/MOP/c-code/mop/SuperPedro\Pedro.c **** 
 131:Z:/MOP/c-code/mop/SuperPedro\Pedro.c ****         if(isUpKey()){
 132:Z:/MOP/c-code/mop/SuperPedro\Pedro.c **** 			Pedro.vely = VELY;    //jump
 133:Z:/MOP/c-code/mop/SuperPedro\Pedro.c ****             Pedro.accy = ACCY;
 134:Z:/MOP/c-code/mop/SuperPedro\Pedro.c ****             Pedro.sprite = pedro_jump;
 135:Z:/MOP/c-code/mop/SuperPedro\Pedro.c **** 		}
 136:Z:/MOP/c-code/mop/SuperPedro\Pedro.c **** 	}
 137:Z:/MOP/c-code/mop/SuperPedro\Pedro.c **** 
 138:Z:/MOP/c-code/mop/SuperPedro\Pedro.c **** }
 771              		.loc 1 138 0
 772 0204 10E0     		b	.L37
 773              	.L31:
 774              	.LBB5:
 131:Z:/MOP/c-code/mop/SuperPedro\Pedro.c **** 			Pedro.vely = VELY;    //jump
 775              		.loc 1 131 0
 776 0206 FFF7FEFF 		bl	isUpKey
 777 020a 031E     		subs	r3, r0, #0
 778 020c 0CD0     		beq	.L37
 132:Z:/MOP/c-code/mop/SuperPedro\Pedro.c ****             Pedro.accy = ACCY;
 779              		.loc 1 132 0
 780 020e 084A     		ldr	r2, .L38
 781 0210 0023     		movs	r3, #0
 782 0212 0D4C     		ldr	r4, .L38+24
 783 0214 9361     		str	r3, [r2, #24]
 784 0216 D461     		str	r4, [r2, #28]
 133:Z:/MOP/c-code/mop/SuperPedro\Pedro.c ****             Pedro.sprite = pedro_jump;
 785              		.loc 1 133 0
 786 0218 054A     		ldr	r2, .L38
 787 021a 094B     		ldr	r3, .L38+16
 788 021c 094C     		ldr	r4, .L38+20
 789 021e 9362     		str	r3, [r2, #40]
 790 0220 D462     		str	r4, [r2, #44]
 134:Z:/MOP/c-code/mop/SuperPedro\Pedro.c **** 		}
 791              		.loc 1 134 0
 792 0222 034B     		ldr	r3, .L38
 793 0224 094A     		ldr	r2, .L38+28
 794 0226 5A63     		str	r2, [r3, #52]
 795              	.L37:
 796              	.LBE5:
 797              		.loc 1 138 0
 798 0228 C046     		nop
 799 022a BD46     		mov	sp, r7
 800              		@ sp needed
 801 022c B0BD     		pop	{r4, r5, r7, pc}
 802              	.L39:
 803 022e C046     		.align	2
 804              	.L38:
 805 0230 40010000 		.word	Pedro
 806 0234 00002C40 		.word	1076625408
 807 0238 0000F03F 		.word	1072693248
 808 023c 0000F0BF 		.word	-1074790400
 809 0240 EC51B81E 		.word	515396076
 810 0244 85EBC1BF 		.word	-1077810299
 811 0248 00001040 		.word	1074790400
 812 024c 50000000 		.word	pedro_jump
 813              		.cfi_endproc
 814              	.LFE2:
 816              		.align	1
 817              		.global	applyPhysics
 818              		.syntax unified
 819              		.code	16
 820              		.thumb_func
 821              		.fpu softvfp
 823              	applyPhysics:
 824              	.LFB3:
 139:Z:/MOP/c-code/mop/SuperPedro\Pedro.c **** 
 140:Z:/MOP/c-code/mop/SuperPedro\Pedro.c **** void applyPhysics(){
 825              		.loc 1 140 0
 826              		.cfi_startproc
 827              		@ args = 0, pretend = 0, frame = 0
 828              		@ frame_needed = 1, uses_anonymous_args = 0
 829 0250 B0B5     		push	{r4, r5, r7, lr}
 830              		.cfi_def_cfa_offset 16
 831              		.cfi_offset 4, -16
 832              		.cfi_offset 5, -12
 833              		.cfi_offset 7, -8
 834              		.cfi_offset 14, -4
 835 0252 00AF     		add	r7, sp, #0
 836              		.cfi_def_cfa_register 7
 141:Z:/MOP/c-code/mop/SuperPedro\Pedro.c ****     //physics
 142:Z:/MOP/c-code/mop/SuperPedro\Pedro.c ****     Pedro.velx += Pedro.accx;
 837              		.loc 1 142 0
 838 0254 164B     		ldr	r3, .L41
 839 0256 1869     		ldr	r0, [r3, #16]
 840 0258 5969     		ldr	r1, [r3, #20]
 841 025a 154B     		ldr	r3, .L41
 842 025c 5C6A     		ldr	r4, [r3, #36]
 843 025e 1B6A     		ldr	r3, [r3, #32]
 844 0260 1A00     		movs	r2, r3
 845 0262 2300     		movs	r3, r4
 846 0264 FFF7FEFF 		bl	__aeabi_dadd
 847              	.LVL14:
 848 0268 0300     		movs	r3, r0
 849 026a 0C00     		movs	r4, r1
 850 026c 104A     		ldr	r2, .L41
 851 026e 1361     		str	r3, [r2, #16]
 852 0270 5461     		str	r4, [r2, #20]
 143:Z:/MOP/c-code/mop/SuperPedro\Pedro.c ****     
 144:Z:/MOP/c-code/mop/SuperPedro\Pedro.c ****     Pedro.vely += Pedro.accy;
 853              		.loc 1 144 0
 854 0272 0F4B     		ldr	r3, .L41
 855 0274 9869     		ldr	r0, [r3, #24]
 856 0276 D969     		ldr	r1, [r3, #28]
 857 0278 0D4B     		ldr	r3, .L41
 858 027a DC6A     		ldr	r4, [r3, #44]
 859 027c 9B6A     		ldr	r3, [r3, #40]
 860 027e 1A00     		movs	r2, r3
 861 0280 2300     		movs	r3, r4
 862 0282 FFF7FEFF 		bl	__aeabi_dadd
 863              	.LVL15:
 864 0286 0300     		movs	r3, r0
 865 0288 0C00     		movs	r4, r1
 866 028a 094A     		ldr	r2, .L41
 867 028c 9361     		str	r3, [r2, #24]
 868 028e D461     		str	r4, [r2, #28]
 145:Z:/MOP/c-code/mop/SuperPedro\Pedro.c **** 	Pedro.posy += (int)Pedro.vely;
 869              		.loc 1 145 0
 870 0290 074B     		ldr	r3, .L41
 871 0292 DD68     		ldr	r5, [r3, #12]
 872 0294 064B     		ldr	r3, .L41
 873 0296 DC69     		ldr	r4, [r3, #28]
 874 0298 9B69     		ldr	r3, [r3, #24]
 875 029a 1800     		movs	r0, r3
 876 029c 2100     		movs	r1, r4
 877 029e FFF7FEFF 		bl	__aeabi_d2iz
 878              	.LVL16:
 879 02a2 0300     		movs	r3, r0
 880 02a4 EA18     		adds	r2, r5, r3
 881 02a6 024B     		ldr	r3, .L41
 882 02a8 DA60     		str	r2, [r3, #12]
 146:Z:/MOP/c-code/mop/SuperPedro\Pedro.c ****     
 147:Z:/MOP/c-code/mop/SuperPedro\Pedro.c **** }
 883              		.loc 1 147 0
 884 02aa C046     		nop
 885 02ac BD46     		mov	sp, r7
 886              		@ sp needed
 887 02ae B0BD     		pop	{r4, r5, r7, pc}
 888              	.L42:
 889              		.align	2
 890              	.L41:
 891 02b0 40010000 		.word	Pedro
 892              		.cfi_endproc
 893              	.LFE3:
 895              		.align	1
 896              		.global	isJumping
 897              		.syntax unified
 898              		.code	16
 899              		.thumb_func
 900              		.fpu softvfp
 902              	isJumping:
 903              	.LFB4:
 148:Z:/MOP/c-code/mop/SuperPedro\Pedro.c **** 
 149:Z:/MOP/c-code/mop/SuperPedro\Pedro.c **** char isJumping(){
 904              		.loc 1 149 0
 905              		.cfi_startproc
 906              		@ args = 0, pretend = 0, frame = 0
 907              		@ frame_needed = 1, uses_anonymous_args = 0
 908 02b4 80B5     		push	{r7, lr}
 909              		.cfi_def_cfa_offset 8
 910              		.cfi_offset 7, -8
 911              		.cfi_offset 14, -4
 912 02b6 00AF     		add	r7, sp, #0
 913              		.cfi_def_cfa_register 7
 150:Z:/MOP/c-code/mop/SuperPedro\Pedro.c ****     return (Pedro.posy > 0 || Pedro.vely != 0);       //groundlvl+pedroheight
 914              		.loc 1 150 0
 915 02b8 094B     		ldr	r3, .L50
 916 02ba DB68     		ldr	r3, [r3, #12]
 917 02bc 002B     		cmp	r3, #0
 918 02be 08DC     		bgt	.L44
 919              		.loc 1 150 0 is_stmt 0 discriminator 2
 920 02c0 074B     		ldr	r3, .L50
 921 02c2 9869     		ldr	r0, [r3, #24]
 922 02c4 D969     		ldr	r1, [r3, #28]
 923 02c6 0022     		movs	r2, #0
 924 02c8 0023     		movs	r3, #0
 925 02ca FFF7FEFF 		bl	__aeabi_dcmpeq
 926              	.LVL17:
 927 02ce 031E     		subs	r3, r0, #0
 928 02d0 01D1     		bne	.L49
 929              	.L44:
 930              		.loc 1 150 0 discriminator 3
 931 02d2 0123     		movs	r3, #1
 932 02d4 00E0     		b	.L47
 933              	.L49:
 934              		.loc 1 150 0 discriminator 4
 935 02d6 0023     		movs	r3, #0
 936              	.L47:
 937              		.loc 1 150 0 discriminator 6
 938 02d8 DBB2     		uxtb	r3, r3
 151:Z:/MOP/c-code/mop/SuperPedro\Pedro.c **** }
 939              		.loc 1 151 0 is_stmt 1 discriminator 6
 940 02da 1800     		movs	r0, r3
 941 02dc BD46     		mov	sp, r7
 942              		@ sp needed
 943 02de 80BD     		pop	{r7, pc}
 944              	.L51:
 945              		.align	2
 946              	.L50:
 947 02e0 40010000 		.word	Pedro
 948              		.cfi_endproc
 949              	.LFE4:
 951              		.global	facingLeft
 952              		.bss
 955              	facingLeft:
 956 0000 00       		.space	1
 957              		.text
 958              		.align	1
 959              		.global	setSprite
 960              		.syntax unified
 961              		.code	16
 962              		.thumb_func
 963              		.fpu softvfp
 965              	setSprite:
 966              	.LFB5:
 152:Z:/MOP/c-code/mop/SuperPedro\Pedro.c **** 
 153:Z:/MOP/c-code/mop/SuperPedro\Pedro.c **** 
 154:Z:/MOP/c-code/mop/SuperPedro\Pedro.c **** #define distanceBetweenAnimationChange 4
 155:Z:/MOP/c-code/mop/SuperPedro\Pedro.c **** char facingLeft = 0;
 156:Z:/MOP/c-code/mop/SuperPedro\Pedro.c **** char setSprite(){
 967              		.loc 1 156 0
 968              		.cfi_startproc
 969              		@ args = 0, pretend = 0, frame = 8
 970              		@ frame_needed = 1, uses_anonymous_args = 0
 971 02e4 80B5     		push	{r7, lr}
 972              		.cfi_def_cfa_offset 8
 973              		.cfi_offset 7, -8
 974              		.cfi_offset 14, -4
 975 02e6 82B0     		sub	sp, sp, #8
 976              		.cfi_def_cfa_offset 16
 977 02e8 00AF     		add	r7, sp, #0
 978              		.cfi_def_cfa_register 7
 157:Z:/MOP/c-code/mop/SuperPedro\Pedro.c ****     char* lastSprite = Pedro.sprite;
 979              		.loc 1 157 0
 980 02ea 2B4B     		ldr	r3, .L71
 981 02ec 5B6B     		ldr	r3, [r3, #52]
 982 02ee 7B60     		str	r3, [r7, #4]
 158:Z:/MOP/c-code/mop/SuperPedro\Pedro.c **** 	if(Pedro.velx > 0){
 983              		.loc 1 158 0
 984 02f0 294B     		ldr	r3, .L71
 985 02f2 1869     		ldr	r0, [r3, #16]
 986 02f4 5969     		ldr	r1, [r3, #20]
 987 02f6 0022     		movs	r2, #0
 988 02f8 0023     		movs	r3, #0
 989 02fa FFF7FEFF 		bl	__aeabi_dcmpgt
 990              	.LVL18:
 991 02fe 031E     		subs	r3, r0, #0
 992 0300 02D0     		beq	.L53
 159:Z:/MOP/c-code/mop/SuperPedro\Pedro.c **** 		facingLeft = 0;
 993              		.loc 1 159 0
 994 0302 264B     		ldr	r3, .L71+4
 995 0304 0022     		movs	r2, #0
 996 0306 1A70     		strb	r2, [r3]
 997              	.L53:
 160:Z:/MOP/c-code/mop/SuperPedro\Pedro.c **** 	}
 161:Z:/MOP/c-code/mop/SuperPedro\Pedro.c **** 	if(Pedro.velx < 0){
 998              		.loc 1 161 0
 999 0308 234B     		ldr	r3, .L71
 1000 030a 1869     		ldr	r0, [r3, #16]
 1001 030c 5969     		ldr	r1, [r3, #20]
 1002 030e 0022     		movs	r2, #0
 1003 0310 0023     		movs	r3, #0
 1004 0312 FFF7FEFF 		bl	__aeabi_dcmplt
 1005              	.LVL19:
 1006 0316 031E     		subs	r3, r0, #0
 1007 0318 02D0     		beq	.L55
 162:Z:/MOP/c-code/mop/SuperPedro\Pedro.c **** 		facingLeft = 1;
 1008              		.loc 1 162 0
 1009 031a 204B     		ldr	r3, .L71+4
 1010 031c 0122     		movs	r2, #1
 1011 031e 1A70     		strb	r2, [r3]
 1012              	.L55:
 163:Z:/MOP/c-code/mop/SuperPedro\Pedro.c **** 	}
 164:Z:/MOP/c-code/mop/SuperPedro\Pedro.c **** 	if(Pedro.posy > 0){
 1013              		.loc 1 164 0
 1014 0320 1D4B     		ldr	r3, .L71
 1015 0322 DB68     		ldr	r3, [r3, #12]
 1016 0324 002B     		cmp	r3, #0
 1017 0326 03DD     		ble	.L57
 165:Z:/MOP/c-code/mop/SuperPedro\Pedro.c **** 		Pedro.sprite = pedro_jump;
 1018              		.loc 1 165 0
 1019 0328 1B4B     		ldr	r3, .L71
 1020 032a 1D4A     		ldr	r2, .L71+8
 1021 032c 5A63     		str	r2, [r3, #52]
 1022 032e 1DE0     		b	.L58
 1023              	.L57:
 166:Z:/MOP/c-code/mop/SuperPedro\Pedro.c **** 	}
 167:Z:/MOP/c-code/mop/SuperPedro\Pedro.c **** 	else if(Pedro.velx == 0){
 1024              		.loc 1 167 0
 1025 0330 194B     		ldr	r3, .L71
 1026 0332 1869     		ldr	r0, [r3, #16]
 1027 0334 5969     		ldr	r1, [r3, #20]
 1028 0336 0022     		movs	r2, #0
 1029 0338 0023     		movs	r3, #0
 1030 033a FFF7FEFF 		bl	__aeabi_dcmpeq
 1031              	.LVL20:
 1032 033e 031E     		subs	r3, r0, #0
 1033 0340 03D0     		beq	.L70
 168:Z:/MOP/c-code/mop/SuperPedro\Pedro.c **** 		Pedro.sprite = pedro_still;
 1034              		.loc 1 168 0
 1035 0342 154B     		ldr	r3, .L71
 1036 0344 174A     		ldr	r2, .L71+12
 1037 0346 5A63     		str	r2, [r3, #52]
 1038 0348 10E0     		b	.L58
 1039              	.L70:
 169:Z:/MOP/c-code/mop/SuperPedro\Pedro.c **** 	}
 170:Z:/MOP/c-code/mop/SuperPedro\Pedro.c **** 	else if((getDistance()/distanceBetweenAnimationChange)%2){
 1040              		.loc 1 170 0
 1041 034a FFF7FEFF 		bl	getDistance
 1042 034e 031E     		subs	r3, r0, #0
 1043 0350 00DA     		bge	.L61
 1044 0352 0333     		adds	r3, r3, #3
 1045              	.L61:
 1046 0354 9B10     		asrs	r3, r3, #2
 1047 0356 1A00     		movs	r2, r3
 1048 0358 0123     		movs	r3, #1
 1049 035a 1340     		ands	r3, r2
 1050 035c 03D0     		beq	.L62
 171:Z:/MOP/c-code/mop/SuperPedro\Pedro.c **** 		Pedro.sprite = pedro_walk2;
 1051              		.loc 1 171 0
 1052 035e 0E4B     		ldr	r3, .L71
 1053 0360 114A     		ldr	r2, .L71+16
 1054 0362 5A63     		str	r2, [r3, #52]
 1055 0364 02E0     		b	.L58
 1056              	.L62:
 172:Z:/MOP/c-code/mop/SuperPedro\Pedro.c **** 	}
 173:Z:/MOP/c-code/mop/SuperPedro\Pedro.c **** 	else{
 174:Z:/MOP/c-code/mop/SuperPedro\Pedro.c **** 		Pedro.sprite = pedro_walk1;
 1057              		.loc 1 174 0
 1058 0366 0C4B     		ldr	r3, .L71
 1059 0368 104A     		ldr	r2, .L71+20
 1060 036a 5A63     		str	r2, [r3, #52]
 1061              	.L58:
 175:Z:/MOP/c-code/mop/SuperPedro\Pedro.c **** 	}
 176:Z:/MOP/c-code/mop/SuperPedro\Pedro.c ****     if(lastSprite == Pedro.sprite && Pedro.vely == 0){
 1062              		.loc 1 176 0
 1063 036c 0A4B     		ldr	r3, .L71
 1064 036e 5B6B     		ldr	r3, [r3, #52]
 1065 0370 7A68     		ldr	r2, [r7, #4]
 1066 0372 9A42     		cmp	r2, r3
 1067 0374 0AD1     		bne	.L63
 1068              		.loc 1 176 0 is_stmt 0 discriminator 1
 1069 0376 084B     		ldr	r3, .L71
 1070 0378 9869     		ldr	r0, [r3, #24]
 1071 037a D969     		ldr	r1, [r3, #28]
 1072 037c 0022     		movs	r2, #0
 1073 037e 0023     		movs	r3, #0
 1074 0380 FFF7FEFF 		bl	__aeabi_dcmpeq
 1075              	.LVL21:
 1076 0384 031E     		subs	r3, r0, #0
 1077 0386 01D0     		beq	.L63
 177:Z:/MOP/c-code/mop/SuperPedro\Pedro.c ****         return 0;
 1078              		.loc 1 177 0 is_stmt 1
 1079 0388 0023     		movs	r3, #0
 1080 038a 00E0     		b	.L65
 1081              	.L63:
 178:Z:/MOP/c-code/mop/SuperPedro\Pedro.c ****     }
 179:Z:/MOP/c-code/mop/SuperPedro\Pedro.c ****     else {
 180:Z:/MOP/c-code/mop/SuperPedro\Pedro.c ****         return 1;
 1082              		.loc 1 180 0
 1083 038c 0123     		movs	r3, #1
 1084              	.L65:
 181:Z:/MOP/c-code/mop/SuperPedro\Pedro.c ****     }
 182:Z:/MOP/c-code/mop/SuperPedro\Pedro.c **** }
 1085              		.loc 1 182 0
 1086 038e 1800     		movs	r0, r3
 1087 0390 BD46     		mov	sp, r7
 1088 0392 02B0     		add	sp, sp, #8
 1089              		@ sp needed
 1090 0394 80BD     		pop	{r7, pc}
 1091              	.L72:
 1092 0396 C046     		.align	2
 1093              	.L71:
 1094 0398 40010000 		.word	Pedro
 1095 039c 00000000 		.word	facingLeft
 1096 03a0 50000000 		.word	pedro_jump
 1097 03a4 00000000 		.word	pedro_still
 1098 03a8 F0000000 		.word	pedro_walk2
 1099 03ac A0000000 		.word	pedro_walk1
 1100              		.cfi_endproc
 1101              	.LFE5:
 1103              		.align	1
 1104              		.global	draw2
 1105              		.syntax unified
 1106              		.code	16
 1107              		.thumb_func
 1108              		.fpu softvfp
 1110              	draw2:
 1111              	.LFB6:
 183:Z:/MOP/c-code/mop/SuperPedro\Pedro.c **** 
 184:Z:/MOP/c-code/mop/SuperPedro\Pedro.c **** 
 185:Z:/MOP/c-code/mop/SuperPedro\Pedro.c **** void draw2(){
 1112              		.loc 1 185 0
 1113              		.cfi_startproc
 1114              		@ args = 0, pretend = 0, frame = 16
 1115              		@ frame_needed = 1, uses_anonymous_args = 0
 1116 03b0 F0B5     		push	{r4, r5, r6, r7, lr}
 1117              		.cfi_def_cfa_offset 20
 1118              		.cfi_offset 4, -20
 1119              		.cfi_offset 5, -16
 1120              		.cfi_offset 6, -12
 1121              		.cfi_offset 7, -8
 1122              		.cfi_offset 14, -4
 1123 03b2 85B0     		sub	sp, sp, #20
 1124              		.cfi_def_cfa_offset 40
 1125 03b4 00AF     		add	r7, sp, #0
 1126              		.cfi_def_cfa_register 7
 186:Z:/MOP/c-code/mop/SuperPedro\Pedro.c ****     char newsprite = setSprite();
 1127              		.loc 1 186 0
 1128 03b6 FE1C     		adds	r6, r7, #3
 1129 03b8 FFF7FEFF 		bl	setSprite
 1130 03bc 0300     		movs	r3, r0
 1131 03be 3370     		strb	r3, [r6]
 1132              	.LBB6:
 187:Z:/MOP/c-code/mop/SuperPedro\Pedro.c ****     
 188:Z:/MOP/c-code/mop/SuperPedro\Pedro.c ****     for(int i = 0; i < 20; i++){
 1133              		.loc 1 188 0
 1134 03c0 0023     		movs	r3, #0
 1135 03c2 FB60     		str	r3, [r7, #12]
 1136 03c4 1EE0     		b	.L74
 1137              	.L77:
 1138              	.LBB7:
 189:Z:/MOP/c-code/mop/SuperPedro\Pedro.c ****         for(int j = 0; j < 4; j++){
 1139              		.loc 1 189 0
 1140 03c6 0023     		movs	r3, #0
 1141 03c8 BB60     		str	r3, [r7, #8]
 1142 03ca 15E0     		b	.L75
 1143              	.L76:
 190:Z:/MOP/c-code/mop/SuperPedro\Pedro.c ****             BUF[i].c[j+4] = *(Pedro.sprite + j*Pedro.width + i);
 1144              		.loc 1 190 0 discriminator 3
 1145 03cc 264B     		ldr	r3, .L82
 1146 03ce 5A6B     		ldr	r2, [r3, #52]
 1147 03d0 254B     		ldr	r3, .L82
 1148 03d2 5B68     		ldr	r3, [r3, #4]
 1149 03d4 B968     		ldr	r1, [r7, #8]
 1150 03d6 4B43     		muls	r3, r1
 1151 03d8 1900     		movs	r1, r3
 1152 03da FB68     		ldr	r3, [r7, #12]
 1153 03dc CB18     		adds	r3, r1, r3
 1154 03de D218     		adds	r2, r2, r3
 1155 03e0 BB68     		ldr	r3, [r7, #8]
 1156 03e2 0433     		adds	r3, r3, #4
 1157 03e4 1078     		ldrb	r0, [r2]
 1158 03e6 2149     		ldr	r1, .L82+4
 1159 03e8 FA68     		ldr	r2, [r7, #12]
 1160 03ea D200     		lsls	r2, r2, #3
 1161 03ec 8A18     		adds	r2, r1, r2
 1162 03ee 011C     		adds	r1, r0, #0
 1163 03f0 D154     		strb	r1, [r2, r3]
 189:Z:/MOP/c-code/mop/SuperPedro\Pedro.c ****         for(int j = 0; j < 4; j++){
 1164              		.loc 1 189 0 discriminator 3
 1165 03f2 BB68     		ldr	r3, [r7, #8]
 1166 03f4 0133     		adds	r3, r3, #1
 1167 03f6 BB60     		str	r3, [r7, #8]
 1168              	.L75:
 189:Z:/MOP/c-code/mop/SuperPedro\Pedro.c ****         for(int j = 0; j < 4; j++){
 1169              		.loc 1 189 0 is_stmt 0 discriminator 1
 1170 03f8 BB68     		ldr	r3, [r7, #8]
 1171 03fa 032B     		cmp	r3, #3
 1172 03fc E6DD     		ble	.L76
 1173              	.LBE7:
 188:Z:/MOP/c-code/mop/SuperPedro\Pedro.c ****         for(int j = 0; j < 4; j++){
 1174              		.loc 1 188 0 is_stmt 1 discriminator 2
 1175 03fe FB68     		ldr	r3, [r7, #12]
 1176 0400 0133     		adds	r3, r3, #1
 1177 0402 FB60     		str	r3, [r7, #12]
 1178              	.L74:
 188:Z:/MOP/c-code/mop/SuperPedro\Pedro.c ****         for(int j = 0; j < 4; j++){
 1179              		.loc 1 188 0 is_stmt 0 discriminator 1
 1180 0404 FB68     		ldr	r3, [r7, #12]
 1181 0406 132B     		cmp	r3, #19
 1182 0408 DDDD     		ble	.L77
 1183              	.LBE6:
 1184              	.LBB8:
 191:Z:/MOP/c-code/mop/SuperPedro\Pedro.c ****         }
 192:Z:/MOP/c-code/mop/SuperPedro\Pedro.c ****     }
 193:Z:/MOP/c-code/mop/SuperPedro\Pedro.c ****     
 194:Z:/MOP/c-code/mop/SuperPedro\Pedro.c ****     for(int i = 0; i < 20; i++){
 1185              		.loc 1 194 0 is_stmt 1
 1186 040a 0023     		movs	r3, #0
 1187 040c 7B60     		str	r3, [r7, #4]
 1188 040e 24E0     		b	.L78
 1189              	.L81:
 195:Z:/MOP/c-code/mop/SuperPedro\Pedro.c ****         BUF[i].lng <<= Pedro.posy;
 1190              		.loc 1 195 0 discriminator 3
 1191 0410 164A     		ldr	r2, .L82+4
 1192 0412 7B68     		ldr	r3, [r7, #4]
 1193 0414 DB00     		lsls	r3, r3, #3
 1194 0416 D318     		adds	r3, r2, r3
 1195 0418 1A68     		ldr	r2, [r3]
 1196 041a 5B68     		ldr	r3, [r3, #4]
 1197 041c 1249     		ldr	r1, .L82
 1198 041e C968     		ldr	r1, [r1, #12]
 1199 0420 0800     		movs	r0, r1
 1200 0422 2038     		subs	r0, r0, #32
 1201 0424 0028     		cmp	r0, #0
 1202 0426 03DB     		blt	.L79
 1203 0428 1600     		movs	r6, r2
 1204 042a 8640     		lsls	r6, r6, r0
 1205 042c 3500     		movs	r5, r6
 1206 042e 08E0     		b	.L80
 1207              	.L79:
 1208 0430 2020     		movs	r0, #32
 1209 0432 401A     		subs	r0, r0, r1
 1210 0434 1600     		movs	r6, r2
 1211 0436 C640     		lsrs	r6, r6, r0
 1212 0438 3000     		movs	r0, r6
 1213 043a 1E00     		movs	r6, r3
 1214 043c 8E40     		lsls	r6, r6, r1
 1215 043e 3500     		movs	r5, r6
 1216 0440 0543     		orrs	r5, r0
 1217              	.L80:
 1218 0442 1300     		movs	r3, r2
 1219 0444 8B40     		lsls	r3, r3, r1
 1220 0446 1C00     		movs	r4, r3
 1221 0448 084A     		ldr	r2, .L82+4
 1222 044a 7B68     		ldr	r3, [r7, #4]
 1223 044c DB00     		lsls	r3, r3, #3
 1224 044e D318     		adds	r3, r2, r3
 1225 0450 1C60     		str	r4, [r3]
 1226 0452 5D60     		str	r5, [r3, #4]
 194:Z:/MOP/c-code/mop/SuperPedro\Pedro.c ****         BUF[i].lng <<= Pedro.posy;
 1227              		.loc 1 194 0 discriminator 3
 1228 0454 7B68     		ldr	r3, [r7, #4]
 1229 0456 0133     		adds	r3, r3, #1
 1230 0458 7B60     		str	r3, [r7, #4]
 1231              	.L78:
 194:Z:/MOP/c-code/mop/SuperPedro\Pedro.c ****         BUF[i].lng <<= Pedro.posy;
 1232              		.loc 1 194 0 is_stmt 0 discriminator 1
 1233 045a 7B68     		ldr	r3, [r7, #4]
 1234 045c 132B     		cmp	r3, #19
 1235 045e D7DD     		ble	.L81
 1236              	.LBE8:
 196:Z:/MOP/c-code/mop/SuperPedro\Pedro.c ****     }
 197:Z:/MOP/c-code/mop/SuperPedro\Pedro.c ****     
 198:Z:/MOP/c-code/mop/SuperPedro\Pedro.c **** }
 1237              		.loc 1 198 0 is_stmt 1
 1238 0460 C046     		nop
 1239 0462 BD46     		mov	sp, r7
 1240 0464 05B0     		add	sp, sp, #20
 1241              		@ sp needed
 1242 0466 F0BD     		pop	{r4, r5, r6, r7, pc}
 1243              	.L83:
 1244              		.align	2
 1245              	.L82:
 1246 0468 40010000 		.word	Pedro
 1247 046c 00000000 		.word	BUF
 1248              		.cfi_endproc
 1249              	.LFE6:
 1251              		.align	1
 1252              		.global	draw
 1253              		.syntax unified
 1254              		.code	16
 1255              		.thumb_func
 1256              		.fpu softvfp
 1258              	draw:
 1259              	.LFB7:
 199:Z:/MOP/c-code/mop/SuperPedro\Pedro.c **** 
 200:Z:/MOP/c-code/mop/SuperPedro\Pedro.c **** void draw(){
 1260              		.loc 1 200 0
 1261              		.cfi_startproc
 1262              		@ args = 0, pretend = 0, frame = 32
 1263              		@ frame_needed = 1, uses_anonymous_args = 0
 1264 0470 90B5     		push	{r4, r7, lr}
 1265              		.cfi_def_cfa_offset 12
 1266              		.cfi_offset 4, -12
 1267              		.cfi_offset 7, -8
 1268              		.cfi_offset 14, -4
 1269 0472 89B0     		sub	sp, sp, #36
 1270              		.cfi_def_cfa_offset 48
 1271 0474 00AF     		add	r7, sp, #0
 1272              		.cfi_def_cfa_register 7
 201:Z:/MOP/c-code/mop/SuperPedro\Pedro.c ****     
 202:Z:/MOP/c-code/mop/SuperPedro\Pedro.c ****     char newsprite = setSprite();
 1273              		.loc 1 202 0
 1274 0476 1C23     		movs	r3, #28
 1275 0478 FC18     		adds	r4, r7, r3
 1276 047a FFF7FEFF 		bl	setSprite
 1277 047e 0300     		movs	r3, r0
 1278 0480 2370     		strb	r3, [r4]
 203:Z:/MOP/c-code/mop/SuperPedro\Pedro.c **** 
 204:Z:/MOP/c-code/mop/SuperPedro\Pedro.c ****     
 205:Z:/MOP/c-code/mop/SuperPedro\Pedro.c ****     unsigned char i, j;
 206:Z:/MOP/c-code/mop/SuperPedro\Pedro.c ****     unsigned char* man = Pedro.sprite;
 1279              		.loc 1 206 0
 1280 0482 8A4B     		ldr	r3, .L102
 1281 0484 5B6B     		ldr	r3, [r3, #52]
 1282 0486 BB61     		str	r3, [r7, #24]
 207:Z:/MOP/c-code/mop/SuperPedro\Pedro.c ****     int shift = Pedro.posy%8;
 1283              		.loc 1 207 0
 1284 0488 884B     		ldr	r3, .L102
 1285 048a DB68     		ldr	r3, [r3, #12]
 1286 048c 884A     		ldr	r2, .L102+4
 1287 048e 1340     		ands	r3, r2
 1288 0490 04D5     		bpl	.L85
 1289 0492 013B     		subs	r3, r3, #1
 1290 0494 0822     		movs	r2, #8
 1291 0496 5242     		rsbs	r2, r2, #0
 1292 0498 1343     		orrs	r3, r2
 1293 049a 0133     		adds	r3, r3, #1
 1294              	.L85:
 1295 049c 7B61     		str	r3, [r7, #20]
 208:Z:/MOP/c-code/mop/SuperPedro\Pedro.c ****     for(j = 0; j < ((Pedro.height)/8)+1; j++) {
 1296              		.loc 1 208 0
 1297 049e 1E23     		movs	r3, #30
 1298 04a0 FB18     		adds	r3, r7, r3
 1299 04a2 0022     		movs	r2, #0
 1300 04a4 1A70     		strb	r2, [r3]
 1301 04a6 EFE0     		b	.L86
 1302              	.L101:
 209:Z:/MOP/c-code/mop/SuperPedro\Pedro.c ****         if(!(Pedro.posy+Pedro.height > 54 && j < ((54-Pedro.posy)/8))){						//If page is over his 
 1303              		.loc 1 209 0
 1304 04a8 804B     		ldr	r3, .L102
 1305 04aa DA68     		ldr	r2, [r3, #12]
 1306 04ac 7F4B     		ldr	r3, .L102
 1307 04ae 1B68     		ldr	r3, [r3]
 1308 04b0 D318     		adds	r3, r2, r3
 1309 04b2 362B     		cmp	r3, #54
 1310 04b4 0CDD     		ble	.L87
 1311              		.loc 1 209 0 is_stmt 0 discriminator 1
 1312 04b6 1E23     		movs	r3, #30
 1313 04b8 FB18     		adds	r3, r7, r3
 1314 04ba 1A78     		ldrb	r2, [r3]
 1315 04bc 7B4B     		ldr	r3, .L102
 1316 04be DB68     		ldr	r3, [r3, #12]
 1317 04c0 3621     		movs	r1, #54
 1318 04c2 CB1A     		subs	r3, r1, r3
 1319 04c4 00D5     		bpl	.L88
 1320 04c6 0733     		adds	r3, r3, #7
 1321              	.L88:
 1322 04c8 DB10     		asrs	r3, r3, #3
 1323 04ca 9A42     		cmp	r2, r3
 1324 04cc 00DA     		bge	.LCB797
 1325 04ce D5E0     		b	.L89	@long jump
 1326              	.LCB797:
 1327              	.L87:
 210:Z:/MOP/c-code/mop/SuperPedro\Pedro.c **** 
 211:Z:/MOP/c-code/mop/SuperPedro\Pedro.c ****             graphic_write_command(LCD_SET_PAGE | (((63-Pedro.posy-Pedro.height)/8)+j), B_CS1);
 1328              		.loc 1 211 0 is_stmt 1
 1329 04d0 764B     		ldr	r3, .L102
 1330 04d2 DB68     		ldr	r3, [r3, #12]
 1331 04d4 3F22     		movs	r2, #63
 1332 04d6 D21A     		subs	r2, r2, r3
 1333 04d8 744B     		ldr	r3, .L102
 1334 04da 1B68     		ldr	r3, [r3]
 1335 04dc D31A     		subs	r3, r2, r3
 1336 04de 00D5     		bpl	.L90
 1337 04e0 0733     		adds	r3, r3, #7
 1338              	.L90:
 1339 04e2 DB10     		asrs	r3, r3, #3
 1340 04e4 DAB2     		uxtb	r2, r3
 1341 04e6 1E23     		movs	r3, #30
 1342 04e8 FB18     		adds	r3, r7, r3
 1343 04ea 1B78     		ldrb	r3, [r3]
 1344 04ec D318     		adds	r3, r2, r3
 1345 04ee DBB2     		uxtb	r3, r3
 1346 04f0 5BB2     		sxtb	r3, r3
 1347 04f2 4822     		movs	r2, #72
 1348 04f4 5242     		rsbs	r2, r2, #0
 1349 04f6 1343     		orrs	r3, r2
 1350 04f8 5BB2     		sxtb	r3, r3
 1351 04fa DBB2     		uxtb	r3, r3
 1352 04fc 0821     		movs	r1, #8
 1353 04fe 1800     		movs	r0, r3
 1354 0500 FFF7FEFF 		bl	graphic_write_command
 212:Z:/MOP/c-code/mop/SuperPedro\Pedro.c ****             graphic_write_command(LCD_SET_ADD | Pedro.posx, B_CS1);
 1355              		.loc 1 212 0
 1356 0504 694B     		ldr	r3, .L102
 1357 0506 9B68     		ldr	r3, [r3, #8]
 1358 0508 5BB2     		sxtb	r3, r3
 1359 050a 4022     		movs	r2, #64
 1360 050c 1343     		orrs	r3, r2
 1361 050e 5BB2     		sxtb	r3, r3
 1362 0510 DBB2     		uxtb	r3, r3
 1363 0512 0821     		movs	r1, #8
 1364 0514 1800     		movs	r0, r3
 1365 0516 FFF7FEFF 		bl	graphic_write_command
 213:Z:/MOP/c-code/mop/SuperPedro\Pedro.c ****             for(i = 0; i < Pedro.width; i++) {
 1366              		.loc 1 213 0
 1367 051a 1F23     		movs	r3, #31
 1368 051c FB18     		adds	r3, r7, r3
 1369 051e 0022     		movs	r2, #0
 1370 0520 1A70     		strb	r2, [r3]
 1371 0522 A3E0     		b	.L91
 1372              	.L99:
 214:Z:/MOP/c-code/mop/SuperPedro\Pedro.c ****                 if(j == 0){
 1373              		.loc 1 214 0
 1374 0524 1E23     		movs	r3, #30
 1375 0526 FB18     		adds	r3, r7, r3
 1376 0528 1B78     		ldrb	r3, [r3]
 1377 052a 002B     		cmp	r3, #0
 1378 052c 20D1     		bne	.L92
 1379              	.LBB9:
 215:Z:/MOP/c-code/mop/SuperPedro\Pedro.c ****                     unsigned char* adress = (man+(j*Pedro.width)+i);
 1380              		.loc 1 215 0
 1381 052e 1E23     		movs	r3, #30
 1382 0530 FB18     		adds	r3, r7, r3
 1383 0532 1A78     		ldrb	r2, [r3]
 1384 0534 5D4B     		ldr	r3, .L102
 1385 0536 5B68     		ldr	r3, [r3, #4]
 1386 0538 5343     		muls	r3, r2
 1387 053a 1A00     		movs	r2, r3
 1388 053c 1F23     		movs	r3, #31
 1389 053e FB18     		adds	r3, r7, r3
 1390 0540 1B78     		ldrb	r3, [r3]
 1391 0542 D318     		adds	r3, r2, r3
 1392 0544 BA69     		ldr	r2, [r7, #24]
 1393 0546 D318     		adds	r3, r2, r3
 1394 0548 BB60     		str	r3, [r7, #8]
 216:Z:/MOP/c-code/mop/SuperPedro\Pedro.c ****                     unsigned char byte = *adress;
 1395              		.loc 1 216 0
 1396 054a FB1D     		adds	r3, r7, #7
 1397 054c BA68     		ldr	r2, [r7, #8]
 1398 054e 1278     		ldrb	r2, [r2]
 1399 0550 1A70     		strb	r2, [r3]
 217:Z:/MOP/c-code/mop/SuperPedro\Pedro.c ****                     byte = byte<<(8-shift);
 1400              		.loc 1 217 0
 1401 0552 FB1D     		adds	r3, r7, #7
 1402 0554 1A78     		ldrb	r2, [r3]
 1403 0556 7B69     		ldr	r3, [r7, #20]
 1404 0558 0821     		movs	r1, #8
 1405 055a CB1A     		subs	r3, r1, r3
 1406 055c 9A40     		lsls	r2, r2, r3
 1407 055e FB1D     		adds	r3, r7, #7
 1408 0560 1A70     		strb	r2, [r3]
 218:Z:/MOP/c-code/mop/SuperPedro\Pedro.c ****                     graphic_write_data(byte, B_CS1);
 1409              		.loc 1 218 0
 1410 0562 FB1D     		adds	r3, r7, #7
 1411 0564 1B78     		ldrb	r3, [r3]
 1412 0566 0821     		movs	r1, #8
 1413 0568 1800     		movs	r0, r3
 1414 056a FFF7FEFF 		bl	graphic_write_data
 1415              	.LBE9:
 1416 056e 77E0     		b	.L93
 1417              	.L92:
 1418              	.LBB10:
 219:Z:/MOP/c-code/mop/SuperPedro\Pedro.c ****                 }
 220:Z:/MOP/c-code/mop/SuperPedro\Pedro.c ****                 else{
 221:Z:/MOP/c-code/mop/SuperPedro\Pedro.c ****                     unsigned char* adress = (man+((j-1)*Pedro.width)+i);
 1419              		.loc 1 221 0
 1420 0570 1E20     		movs	r0, #30
 1421 0572 3B18     		adds	r3, r7, r0
 1422 0574 1B78     		ldrb	r3, [r3]
 1423 0576 5A1E     		subs	r2, r3, #1
 1424 0578 4C4B     		ldr	r3, .L102
 1425 057a 5B68     		ldr	r3, [r3, #4]
 1426 057c 5343     		muls	r3, r2
 1427 057e 1A00     		movs	r2, r3
 1428 0580 1F23     		movs	r3, #31
 1429 0582 FB18     		adds	r3, r7, r3
 1430 0584 1B78     		ldrb	r3, [r3]
 1431 0586 D318     		adds	r3, r2, r3
 1432 0588 BA69     		ldr	r2, [r7, #24]
 1433 058a D318     		adds	r3, r2, r3
 1434 058c 3B61     		str	r3, [r7, #16]
 222:Z:/MOP/c-code/mop/SuperPedro\Pedro.c ****                     unsigned char byte = *adress;
 1435              		.loc 1 222 0
 1436 058e 1D21     		movs	r1, #29
 1437 0590 7B18     		adds	r3, r7, r1
 1438 0592 3A69     		ldr	r2, [r7, #16]
 1439 0594 1278     		ldrb	r2, [r2]
 1440 0596 1A70     		strb	r2, [r3]
 223:Z:/MOP/c-code/mop/SuperPedro\Pedro.c ****                     byte = byte>>(shift);
 1441              		.loc 1 223 0
 1442 0598 7B18     		adds	r3, r7, r1
 1443 059a 1A78     		ldrb	r2, [r3]
 1444 059c 7B69     		ldr	r3, [r7, #20]
 1445 059e 1A41     		asrs	r2, r2, r3
 1446 05a0 7B18     		adds	r3, r7, r1
 1447 05a2 1A70     		strb	r2, [r3]
 224:Z:/MOP/c-code/mop/SuperPedro\Pedro.c ****                     if(j < (Pedro.height)/8){
 1448              		.loc 1 224 0
 1449 05a4 3B18     		adds	r3, r7, r0
 1450 05a6 1A78     		ldrb	r2, [r3]
 1451 05a8 404B     		ldr	r3, .L102
 1452 05aa 1B68     		ldr	r3, [r3]
 1453 05ac 002B     		cmp	r3, #0
 1454 05ae 00DA     		bge	.L94
 1455 05b0 0733     		adds	r3, r3, #7
 1456              	.L94:
 1457 05b2 DB10     		asrs	r3, r3, #3
 1458 05b4 9A42     		cmp	r2, r3
 1459 05b6 27DA     		bge	.L95
 1460              	.LBB11:
 225:Z:/MOP/c-code/mop/SuperPedro\Pedro.c ****                         unsigned char tillagg = *(adress+Pedro.width);
 1461              		.loc 1 225 0
 1462 05b8 3C4B     		ldr	r3, .L102
 1463 05ba 5B68     		ldr	r3, [r3, #4]
 1464 05bc 1A00     		movs	r2, r3
 1465 05be 3B69     		ldr	r3, [r7, #16]
 1466 05c0 9A18     		adds	r2, r3, r2
 1467 05c2 0F21     		movs	r1, #15
 1468 05c4 7B18     		adds	r3, r7, r1
 1469 05c6 1278     		ldrb	r2, [r2]
 1470 05c8 1A70     		strb	r2, [r3]
 226:Z:/MOP/c-code/mop/SuperPedro\Pedro.c ****                         tillagg &= (0xFF>>(8-shift));		//nollst채ller 철verblivna bitar som ej ing
 1471              		.loc 1 226 0
 1472 05ca 7B69     		ldr	r3, [r7, #20]
 1473 05cc 0822     		movs	r2, #8
 1474 05ce D31A     		subs	r3, r2, r3
 1475 05d0 FF22     		movs	r2, #255
 1476 05d2 1A41     		asrs	r2, r2, r3
 1477 05d4 1300     		movs	r3, r2
 1478 05d6 5BB2     		sxtb	r3, r3
 1479 05d8 0800     		movs	r0, r1
 1480 05da 3A18     		adds	r2, r7, r0
 1481 05dc 1278     		ldrb	r2, [r2]
 1482 05de 52B2     		sxtb	r2, r2
 1483 05e0 1340     		ands	r3, r2
 1484 05e2 5AB2     		sxtb	r2, r3
 1485 05e4 3B18     		adds	r3, r7, r0
 1486 05e6 1A70     		strb	r2, [r3]
 227:Z:/MOP/c-code/mop/SuperPedro\Pedro.c ****                         tillagg = tillagg<<(8-shift);
 1487              		.loc 1 227 0
 1488 05e8 3B18     		adds	r3, r7, r0
 1489 05ea 1A78     		ldrb	r2, [r3]
 1490 05ec 7B69     		ldr	r3, [r7, #20]
 1491 05ee 0821     		movs	r1, #8
 1492 05f0 CB1A     		subs	r3, r1, r3
 1493 05f2 9A40     		lsls	r2, r2, r3
 1494 05f4 3B18     		adds	r3, r7, r0
 1495 05f6 1A70     		strb	r2, [r3]
 228:Z:/MOP/c-code/mop/SuperPedro\Pedro.c ****                         byte |= tillagg;
 1496              		.loc 1 228 0
 1497 05f8 1D22     		movs	r2, #29
 1498 05fa BB18     		adds	r3, r7, r2
 1499 05fc B918     		adds	r1, r7, r2
 1500 05fe 3A18     		adds	r2, r7, r0
 1501 0600 0978     		ldrb	r1, [r1]
 1502 0602 1278     		ldrb	r2, [r2]
 1503 0604 0A43     		orrs	r2, r1
 1504 0606 1A70     		strb	r2, [r3]
 1505              	.L95:
 1506              	.LBE11:
 229:Z:/MOP/c-code/mop/SuperPedro\Pedro.c ****                     }
 230:Z:/MOP/c-code/mop/SuperPedro\Pedro.c ****                     if(j == (Pedro.height)/8){
 1507              		.loc 1 230 0
 1508 0608 1E23     		movs	r3, #30
 1509 060a FB18     		adds	r3, r7, r3
 1510 060c 1A78     		ldrb	r2, [r3]
 1511 060e 274B     		ldr	r3, .L102
 1512 0610 1B68     		ldr	r3, [r3]
 1513 0612 002B     		cmp	r3, #0
 1514 0614 00DA     		bge	.L96
 1515 0616 0733     		adds	r3, r3, #7
 1516              	.L96:
 1517 0618 DB10     		asrs	r3, r3, #3
 1518 061a 9A42     		cmp	r2, r3
 1519 061c 19D1     		bne	.L97
 231:Z:/MOP/c-code/mop/SuperPedro\Pedro.c ****                         byte |= backBuffer[64+(Pedro.posx)+i][7-(Pedro.posy)/8];
 1520              		.loc 1 231 0
 1521 061e 234B     		ldr	r3, .L102
 1522 0620 9B68     		ldr	r3, [r3, #8]
 1523 0622 4033     		adds	r3, r3, #64
 1524 0624 1A00     		movs	r2, r3
 1525 0626 1F23     		movs	r3, #31
 1526 0628 FB18     		adds	r3, r7, r3
 1527 062a 1B78     		ldrb	r3, [r3]
 1528 062c D218     		adds	r2, r2, r3
 1529 062e 1F4B     		ldr	r3, .L102
 1530 0630 DB68     		ldr	r3, [r3, #12]
 1531 0632 002B     		cmp	r3, #0
 1532 0634 00DA     		bge	.L98
 1533 0636 0733     		adds	r3, r3, #7
 1534              	.L98:
 1535 0638 DB10     		asrs	r3, r3, #3
 1536 063a 5B42     		rsbs	r3, r3, #0
 1537 063c 0733     		adds	r3, r3, #7
 1538 063e 1D49     		ldr	r1, .L102+8
 1539 0640 D200     		lsls	r2, r2, #3
 1540 0642 8A18     		adds	r2, r1, r2
 1541 0644 D15C     		ldrb	r1, [r2, r3]
 1542 0646 1D22     		movs	r2, #29
 1543 0648 BB18     		adds	r3, r7, r2
 1544 064a BA18     		adds	r2, r7, r2
 1545 064c 1278     		ldrb	r2, [r2]
 1546 064e 0A43     		orrs	r2, r1
 1547 0650 1A70     		strb	r2, [r3]
 1548              	.L97:
 232:Z:/MOP/c-code/mop/SuperPedro\Pedro.c ****                     }
 233:Z:/MOP/c-code/mop/SuperPedro\Pedro.c ****                         graphic_write_data(byte, B_CS1);
 1549              		.loc 1 233 0
 1550 0652 1D23     		movs	r3, #29
 1551 0654 FB18     		adds	r3, r7, r3
 1552 0656 1B78     		ldrb	r3, [r3]
 1553 0658 0821     		movs	r1, #8
 1554 065a 1800     		movs	r0, r3
 1555 065c FFF7FEFF 		bl	graphic_write_data
 1556              	.L93:
 1557              	.LBE10:
 213:Z:/MOP/c-code/mop/SuperPedro\Pedro.c ****                 if(j == 0){
 1558              		.loc 1 213 0 discriminator 2
 1559 0660 1F21     		movs	r1, #31
 1560 0662 7B18     		adds	r3, r7, r1
 1561 0664 1A78     		ldrb	r2, [r3]
 1562 0666 7B18     		adds	r3, r7, r1
 1563 0668 0132     		adds	r2, r2, #1
 1564 066a 1A70     		strb	r2, [r3]
 1565              	.L91:
 213:Z:/MOP/c-code/mop/SuperPedro\Pedro.c ****                 if(j == 0){
 1566              		.loc 1 213 0 is_stmt 0 discriminator 1
 1567 066c 1F23     		movs	r3, #31
 1568 066e FB18     		adds	r3, r7, r3
 1569 0670 1A78     		ldrb	r2, [r3]
 1570 0672 0E4B     		ldr	r3, .L102
 1571 0674 5B68     		ldr	r3, [r3, #4]
 1572 0676 9A42     		cmp	r2, r3
 1573 0678 00DA     		bge	.LCB1047
 1574 067a 53E7     		b	.L99	@long jump
 1575              	.LCB1047:
 1576              	.L89:
 208:Z:/MOP/c-code/mop/SuperPedro\Pedro.c ****         if(!(Pedro.posy+Pedro.height > 54 && j < ((54-Pedro.posy)/8))){						//If page is over his 
 1577              		.loc 1 208 0 is_stmt 1 discriminator 2
 1578 067c 1E21     		movs	r1, #30
 1579 067e 7B18     		adds	r3, r7, r1
 1580 0680 1A78     		ldrb	r2, [r3]
 1581 0682 7B18     		adds	r3, r7, r1
 1582 0684 0132     		adds	r2, r2, #1
 1583 0686 1A70     		strb	r2, [r3]
 1584              	.L86:
 208:Z:/MOP/c-code/mop/SuperPedro\Pedro.c ****         if(!(Pedro.posy+Pedro.height > 54 && j < ((54-Pedro.posy)/8))){						//If page is over his 
 1585              		.loc 1 208 0 is_stmt 0 discriminator 1
 1586 0688 1E23     		movs	r3, #30
 1587 068a FB18     		adds	r3, r7, r3
 1588 068c 1A78     		ldrb	r2, [r3]
 1589 068e 074B     		ldr	r3, .L102
 1590 0690 1B68     		ldr	r3, [r3]
 1591 0692 002B     		cmp	r3, #0
 1592 0694 00DA     		bge	.L100
 1593 0696 0733     		adds	r3, r3, #7
 1594              	.L100:
 1595 0698 DB10     		asrs	r3, r3, #3
 1596 069a 0133     		adds	r3, r3, #1
 1597 069c 9A42     		cmp	r2, r3
 1598 069e 00DA     		bge	.LCB1071
 1599 06a0 02E7     		b	.L101	@long jump
 1600              	.LCB1071:
 234:Z:/MOP/c-code/mop/SuperPedro\Pedro.c ****                 }
 235:Z:/MOP/c-code/mop/SuperPedro\Pedro.c ****             }
 236:Z:/MOP/c-code/mop/SuperPedro\Pedro.c ****         }
 237:Z:/MOP/c-code/mop/SuperPedro\Pedro.c ****     }
 238:Z:/MOP/c-code/mop/SuperPedro\Pedro.c **** }
 1601              		.loc 1 238 0 is_stmt 1
 1602 06a2 C046     		nop
 1603 06a4 BD46     		mov	sp, r7
 1604 06a6 09B0     		add	sp, sp, #36
 1605              		@ sp needed
 1606 06a8 90BD     		pop	{r4, r7, pc}
 1607              	.L103:
 1608 06aa C046     		.align	2
 1609              	.L102:
 1610 06ac 40010000 		.word	Pedro
 1611 06b0 07000080 		.word	-2147483641
 1612 06b4 00000000 		.word	backBuffer
 1613              		.cfi_endproc
 1614              	.LFE7:
 1616              		.align	1
 1617              		.global	oldDraw
 1618              		.syntax unified
 1619              		.code	16
 1620              		.thumb_func
 1621              		.fpu softvfp
 1623              	oldDraw:
 1624              	.LFB8:
 239:Z:/MOP/c-code/mop/SuperPedro\Pedro.c **** 
 240:Z:/MOP/c-code/mop/SuperPedro\Pedro.c **** void oldDraw ()
 241:Z:/MOP/c-code/mop/SuperPedro\Pedro.c **** {
 1625              		.loc 1 241 0
 1626              		.cfi_startproc
 1627              		@ args = 0, pretend = 0, frame = 8
 1628              		@ frame_needed = 1, uses_anonymous_args = 0
 1629 06b8 80B5     		push	{r7, lr}
 1630              		.cfi_def_cfa_offset 8
 1631              		.cfi_offset 7, -8
 1632              		.cfi_offset 14, -4
 1633 06ba 82B0     		sub	sp, sp, #8
 1634              		.cfi_def_cfa_offset 16
 1635 06bc 00AF     		add	r7, sp, #0
 1636              		.cfi_def_cfa_register 7
 242:Z:/MOP/c-code/mop/SuperPedro\Pedro.c **** 	unsigned char i, j;
 243:Z:/MOP/c-code/mop/SuperPedro\Pedro.c **** 	 unsigned char* man = Pedro.sprite;
 1637              		.loc 1 243 0
 1638 06be 2F4B     		ldr	r3, .L111
 1639 06c0 5B6B     		ldr	r3, [r3, #52]
 1640 06c2 3B60     		str	r3, [r7]
 244:Z:/MOP/c-code/mop/SuperPedro\Pedro.c ****         for(j = 0; j < (Pedro.height)/8; j++) {
 1641              		.loc 1 244 0
 1642 06c4 BB1D     		adds	r3, r7, #6
 1643 06c6 0022     		movs	r2, #0
 1644 06c8 1A70     		strb	r2, [r3]
 1645 06ca 49E0     		b	.L105
 1646              	.L110:
 1647              	.LBB12:
 245:Z:/MOP/c-code/mop/SuperPedro\Pedro.c ****             graphic_write_command(LCD_SET_PAGE | abs((((63-Pedro.posy-Pedro.height)/8)+j)), B_CS1);
 1648              		.loc 1 245 0
 1649 06cc 2B4B     		ldr	r3, .L111
 1650 06ce DB68     		ldr	r3, [r3, #12]
 1651 06d0 3F22     		movs	r2, #63
 1652 06d2 D21A     		subs	r2, r2, r3
 1653 06d4 294B     		ldr	r3, .L111
 1654 06d6 1B68     		ldr	r3, [r3]
 1655 06d8 D31A     		subs	r3, r2, r3
 1656 06da 00D5     		bpl	.L106
 1657 06dc 0733     		adds	r3, r3, #7
 1658              	.L106:
 1659 06de DB10     		asrs	r3, r3, #3
 1660 06e0 1A00     		movs	r2, r3
 1661 06e2 BB1D     		adds	r3, r7, #6
 1662 06e4 1B78     		ldrb	r3, [r3]
 1663 06e6 D318     		adds	r3, r2, r3
 1664 06e8 DA17     		asrs	r2, r3, #31
 1665 06ea 9B18     		adds	r3, r3, r2
 1666 06ec 5340     		eors	r3, r2
 1667 06ee 5BB2     		sxtb	r3, r3
 1668 06f0 4822     		movs	r2, #72
 1669 06f2 5242     		rsbs	r2, r2, #0
 1670 06f4 1343     		orrs	r3, r2
 1671 06f6 5BB2     		sxtb	r3, r3
 1672 06f8 DBB2     		uxtb	r3, r3
 1673 06fa 0821     		movs	r1, #8
 1674 06fc 1800     		movs	r0, r3
 1675 06fe FFF7FEFF 		bl	graphic_write_command
 246:Z:/MOP/c-code/mop/SuperPedro\Pedro.c ****             graphic_write_command(LCD_SET_ADD | Pedro.posx, B_CS1);
 1676              		.loc 1 246 0
 1677 0702 1E4B     		ldr	r3, .L111
 1678 0704 9B68     		ldr	r3, [r3, #8]
 1679 0706 5BB2     		sxtb	r3, r3
 1680 0708 4022     		movs	r2, #64
 1681 070a 1343     		orrs	r3, r2
 1682 070c 5BB2     		sxtb	r3, r3
 1683 070e DBB2     		uxtb	r3, r3
 1684 0710 0821     		movs	r1, #8
 1685 0712 1800     		movs	r0, r3
 1686 0714 FFF7FEFF 		bl	graphic_write_command
 247:Z:/MOP/c-code/mop/SuperPedro\Pedro.c ****             for(i = 0; i < Pedro.width; i++) {
 1687              		.loc 1 247 0
 1688 0718 FB1D     		adds	r3, r7, #7
 1689 071a 0022     		movs	r2, #0
 1690 071c 1A70     		strb	r2, [r3]
 1691 071e 14E0     		b	.L107
 1692              	.L108:
 248:Z:/MOP/c-code/mop/SuperPedro\Pedro.c ****                 graphic_write_data(*(man+(j*Pedro.width)+i), B_CS1);
 1693              		.loc 1 248 0 discriminator 3
 1694 0720 BB1D     		adds	r3, r7, #6
 1695 0722 1A78     		ldrb	r2, [r3]
 1696 0724 154B     		ldr	r3, .L111
 1697 0726 5B68     		ldr	r3, [r3, #4]
 1698 0728 5343     		muls	r3, r2
 1699 072a 1A00     		movs	r2, r3
 1700 072c FB1D     		adds	r3, r7, #7
 1701 072e 1B78     		ldrb	r3, [r3]
 1702 0730 D318     		adds	r3, r2, r3
 1703 0732 3A68     		ldr	r2, [r7]
 1704 0734 D318     		adds	r3, r2, r3
 1705 0736 1B78     		ldrb	r3, [r3]
 1706 0738 0821     		movs	r1, #8
 1707 073a 1800     		movs	r0, r3
 1708 073c FFF7FEFF 		bl	graphic_write_data
 247:Z:/MOP/c-code/mop/SuperPedro\Pedro.c ****             for(i = 0; i < Pedro.width; i++) {
 1709              		.loc 1 247 0 discriminator 3
 1710 0740 FB1D     		adds	r3, r7, #7
 1711 0742 1A78     		ldrb	r2, [r3]
 1712 0744 FB1D     		adds	r3, r7, #7
 1713 0746 0132     		adds	r2, r2, #1
 1714 0748 1A70     		strb	r2, [r3]
 1715              	.L107:
 247:Z:/MOP/c-code/mop/SuperPedro\Pedro.c ****             for(i = 0; i < Pedro.width; i++) {
 1716              		.loc 1 247 0 is_stmt 0 discriminator 1
 1717 074a FB1D     		adds	r3, r7, #7
 1718 074c 1A78     		ldrb	r2, [r3]
 1719 074e 0B4B     		ldr	r3, .L111
 1720 0750 5B68     		ldr	r3, [r3, #4]
 1721 0752 9A42     		cmp	r2, r3
 1722 0754 E4DB     		blt	.L108
 1723              	.LBE12:
 244:Z:/MOP/c-code/mop/SuperPedro\Pedro.c ****             graphic_write_command(LCD_SET_PAGE | abs((((63-Pedro.posy-Pedro.height)/8)+j)), B_CS1);
 1724              		.loc 1 244 0 is_stmt 1 discriminator 2
 1725 0756 BB1D     		adds	r3, r7, #6
 1726 0758 1A78     		ldrb	r2, [r3]
 1727 075a BB1D     		adds	r3, r7, #6
 1728 075c 0132     		adds	r2, r2, #1
 1729 075e 1A70     		strb	r2, [r3]
 1730              	.L105:
 244:Z:/MOP/c-code/mop/SuperPedro\Pedro.c ****             graphic_write_command(LCD_SET_PAGE | abs((((63-Pedro.posy-Pedro.height)/8)+j)), B_CS1);
 1731              		.loc 1 244 0 is_stmt 0 discriminator 1
 1732 0760 BB1D     		adds	r3, r7, #6
 1733 0762 1A78     		ldrb	r2, [r3]
 1734 0764 054B     		ldr	r3, .L111
 1735 0766 1B68     		ldr	r3, [r3]
 1736 0768 002B     		cmp	r3, #0
 1737 076a 00DA     		bge	.L109
 1738 076c 0733     		adds	r3, r3, #7
 1739              	.L109:
 1740 076e DB10     		asrs	r3, r3, #3
 1741 0770 9A42     		cmp	r2, r3
 1742 0772 ABDB     		blt	.L110
 249:Z:/MOP/c-code/mop/SuperPedro\Pedro.c ****             }
 250:Z:/MOP/c-code/mop/SuperPedro\Pedro.c ****         }
 251:Z:/MOP/c-code/mop/SuperPedro\Pedro.c **** }
 1743              		.loc 1 251 0 is_stmt 1
 1744 0774 C046     		nop
 1745 0776 BD46     		mov	sp, r7
 1746 0778 02B0     		add	sp, sp, #8
 1747              		@ sp needed
 1748 077a 80BD     		pop	{r7, pc}
 1749              	.L112:
 1750              		.align	2
 1751              	.L111:
 1752 077c 40010000 		.word	Pedro
 1753              		.cfi_endproc
 1754              	.LFE8:
 1756              		.align	1
 1757              		.global	abs
 1758              		.syntax unified
 1759              		.code	16
 1760              		.thumb_func
 1761              		.fpu softvfp
 1763              	abs:
 1764              	.LFB9:
 252:Z:/MOP/c-code/mop/SuperPedro\Pedro.c **** 
 253:Z:/MOP/c-code/mop/SuperPedro\Pedro.c **** int abs(int x){
 1765              		.loc 1 253 0
 1766              		.cfi_startproc
 1767              		@ args = 0, pretend = 0, frame = 8
 1768              		@ frame_needed = 1, uses_anonymous_args = 0
 1769 0780 80B5     		push	{r7, lr}
 1770              		.cfi_def_cfa_offset 8
 1771              		.cfi_offset 7, -8
 1772              		.cfi_offset 14, -4
 1773 0782 82B0     		sub	sp, sp, #8
 1774              		.cfi_def_cfa_offset 16
 1775 0784 00AF     		add	r7, sp, #0
 1776              		.cfi_def_cfa_register 7
 1777 0786 7860     		str	r0, [r7, #4]
 254:Z:/MOP/c-code/mop/SuperPedro\Pedro.c ****     if(x >= 0){
 1778              		.loc 1 254 0
 1779 0788 7B68     		ldr	r3, [r7, #4]
 1780 078a 002B     		cmp	r3, #0
 1781 078c 01DB     		blt	.L114
 255:Z:/MOP/c-code/mop/SuperPedro\Pedro.c ****         return x;
 1782              		.loc 1 255 0
 1783 078e 7B68     		ldr	r3, [r7, #4]
 1784 0790 00E0     		b	.L115
 1785              	.L114:
 256:Z:/MOP/c-code/mop/SuperPedro\Pedro.c ****     }
 257:Z:/MOP/c-code/mop/SuperPedro\Pedro.c ****     else {
 258:Z:/MOP/c-code/mop/SuperPedro\Pedro.c ****         return 7;
 1786              		.loc 1 258 0
 1787 0792 0723     		movs	r3, #7
 1788              	.L115:
 259:Z:/MOP/c-code/mop/SuperPedro\Pedro.c ****     }
 260:Z:/MOP/c-code/mop/SuperPedro\Pedro.c **** }
 1789              		.loc 1 260 0
 1790 0794 1800     		movs	r0, r3
 1791 0796 BD46     		mov	sp, r7
 1792 0798 02B0     		add	sp, sp, #8
 1793              		@ sp needed
 1794 079a 80BD     		pop	{r7, pc}
 1795              		.cfi_endproc
 1796              	.LFE9:
 1798              		.align	1
 1799              		.global	touchesPepper
 1800              		.syntax unified
 1801              		.code	16
 1802              		.thumb_func
 1803              		.fpu softvfp
 1805              	touchesPepper:
 1806              	.LFB10:
 261:Z:/MOP/c-code/mop/SuperPedro\Pedro.c **** 
 262:Z:/MOP/c-code/mop/SuperPedro\Pedro.c **** char touchesPepper(){
 1807              		.loc 1 262 0
 1808              		.cfi_startproc
 1809              		@ args = 0, pretend = 0, frame = 16
 1810              		@ frame_needed = 1, uses_anonymous_args = 0
 1811 079c 80B5     		push	{r7, lr}
 1812              		.cfi_def_cfa_offset 8
 1813              		.cfi_offset 7, -8
 1814              		.cfi_offset 14, -4
 1815 079e 84B0     		sub	sp, sp, #16
 1816              		.cfi_def_cfa_offset 24
 1817 07a0 00AF     		add	r7, sp, #0
 1818              		.cfi_def_cfa_register 7
 263:Z:/MOP/c-code/mop/SuperPedro\Pedro.c ****     //kolla nedre h철rnen (om Pedro bredare 채n 16px 채ven i mitten) f철rst, om pixeln 채r 1 -> Ped
 264:Z:/MOP/c-code/mop/SuperPedro\Pedro.c ****     //jfr pedrobyte & backbufferbyte
 265:Z:/MOP/c-code/mop/SuperPedro\Pedro.c **** 	
 266:Z:/MOP/c-code/mop/SuperPedro\Pedro.c **** 	unsigned int pepperStripe = 0;
 1819              		.loc 1 266 0
 1820 07a2 0023     		movs	r3, #0
 1821 07a4 FB60     		str	r3, [r7, #12]
 1822              	.LBB13:
 267:Z:/MOP/c-code/mop/SuperPedro\Pedro.c **** 	for(int i = 0; i < 20; i++){
 1823              		.loc 1 267 0
 1824 07a6 0023     		movs	r3, #0
 1825 07a8 BB60     		str	r3, [r7, #8]
 1826 07aa 44E0     		b	.L117
 1827              	.L121:
 1828              	.LBB14:
 268:Z:/MOP/c-code/mop/SuperPedro\Pedro.c **** 		char part = backBuffer[64+(Pedro.posx)+i][7-(Pedro.posy)/8];
 1829              		.loc 1 268 0 discriminator 3
 1830 07ac 2B4B     		ldr	r3, .L124
 1831 07ae 9B68     		ldr	r3, [r3, #8]
 1832 07b0 4033     		adds	r3, r3, #64
 1833 07b2 1A00     		movs	r2, r3
 1834 07b4 BB68     		ldr	r3, [r7, #8]
 1835 07b6 D118     		adds	r1, r2, r3
 1836 07b8 284B     		ldr	r3, .L124
 1837 07ba DB68     		ldr	r3, [r3, #12]
 1838 07bc 002B     		cmp	r3, #0
 1839 07be 00DA     		bge	.L118
 1840 07c0 0733     		adds	r3, r3, #7
 1841              	.L118:
 1842 07c2 DB10     		asrs	r3, r3, #3
 1843 07c4 5B42     		rsbs	r3, r3, #0
 1844 07c6 DA1D     		adds	r2, r3, #7
 1845 07c8 FB1C     		adds	r3, r7, #3
 1846 07ca 2548     		ldr	r0, .L124+4
 1847 07cc C900     		lsls	r1, r1, #3
 1848 07ce 4118     		adds	r1, r0, r1
 1849 07d0 8A5C     		ldrb	r2, [r1, r2]
 1850 07d2 1A70     		strb	r2, [r3]
 269:Z:/MOP/c-code/mop/SuperPedro\Pedro.c **** 		char mask = 1<<(7-(Pedro.posy%8));
 1851              		.loc 1 269 0 discriminator 3
 1852 07d4 214B     		ldr	r3, .L124
 1853 07d6 DB68     		ldr	r3, [r3, #12]
 1854 07d8 224A     		ldr	r2, .L124+8
 1855 07da 1340     		ands	r3, r2
 1856 07dc 04D5     		bpl	.L119
 1857 07de 013B     		subs	r3, r3, #1
 1858 07e0 0822     		movs	r2, #8
 1859 07e2 5242     		rsbs	r2, r2, #0
 1860 07e4 1343     		orrs	r3, r2
 1861 07e6 0133     		adds	r3, r3, #1
 1862              	.L119:
 1863 07e8 1A00     		movs	r2, r3
 1864 07ea 0723     		movs	r3, #7
 1865 07ec 9B1A     		subs	r3, r3, r2
 1866 07ee 0122     		movs	r2, #1
 1867 07f0 9A40     		lsls	r2, r2, r3
 1868 07f2 BB1C     		adds	r3, r7, #2
 1869 07f4 1A70     		strb	r2, [r3]
 270:Z:/MOP/c-code/mop/SuperPedro\Pedro.c **** 		part &= mask;
 1870              		.loc 1 270 0 discriminator 3
 1871 07f6 FB1C     		adds	r3, r7, #3
 1872 07f8 FA1C     		adds	r2, r7, #3
 1873 07fa B91C     		adds	r1, r7, #2
 1874 07fc 1278     		ldrb	r2, [r2]
 1875 07fe 0978     		ldrb	r1, [r1]
 1876 0800 0A40     		ands	r2, r1
 1877 0802 1A70     		strb	r2, [r3]
 271:Z:/MOP/c-code/mop/SuperPedro\Pedro.c **** 		pepperStripe |= (part<<(24-i+(Pedro.posy%8)));
 1878              		.loc 1 271 0 discriminator 3
 1879 0804 FB1C     		adds	r3, r7, #3
 1880 0806 1A78     		ldrb	r2, [r3]
 1881 0808 BB68     		ldr	r3, [r7, #8]
 1882 080a 1821     		movs	r1, #24
 1883 080c C91A     		subs	r1, r1, r3
 1884 080e 134B     		ldr	r3, .L124
 1885 0810 DB68     		ldr	r3, [r3, #12]
 1886 0812 1448     		ldr	r0, .L124+8
 1887 0814 0340     		ands	r3, r0
 1888 0816 04D5     		bpl	.L120
 1889 0818 013B     		subs	r3, r3, #1
 1890 081a 0820     		movs	r0, #8
 1891 081c 4042     		rsbs	r0, r0, #0
 1892 081e 0343     		orrs	r3, r0
 1893 0820 0133     		adds	r3, r3, #1
 1894              	.L120:
 1895 0822 CB18     		adds	r3, r1, r3
 1896 0824 9A40     		lsls	r2, r2, r3
 1897 0826 1300     		movs	r3, r2
 1898 0828 1A00     		movs	r2, r3
 1899 082a FB68     		ldr	r3, [r7, #12]
 1900 082c 1343     		orrs	r3, r2
 1901 082e FB60     		str	r3, [r7, #12]
 1902              	.LBE14:
 267:Z:/MOP/c-code/mop/SuperPedro\Pedro.c **** 		char part = backBuffer[64+(Pedro.posx)+i][7-(Pedro.posy)/8];
 1903              		.loc 1 267 0 discriminator 3
 1904 0830 BB68     		ldr	r3, [r7, #8]
 1905 0832 0133     		adds	r3, r3, #1
 1906 0834 BB60     		str	r3, [r7, #8]
 1907              	.L117:
 267:Z:/MOP/c-code/mop/SuperPedro\Pedro.c **** 		char part = backBuffer[64+(Pedro.posx)+i][7-(Pedro.posy)/8];
 1908              		.loc 1 267 0 is_stmt 0 discriminator 1
 1909 0836 BB68     		ldr	r3, [r7, #8]
 1910 0838 132B     		cmp	r3, #19
 1911 083a B7DD     		ble	.L121
 1912              	.LBE13:
 272:Z:/MOP/c-code/mop/SuperPedro\Pedro.c **** 	}	
 273:Z:/MOP/c-code/mop/SuperPedro\Pedro.c **** 	int bottomRow = getBottomRow(0);
 1913              		.loc 1 273 0 is_stmt 1
 1914 083c 0020     		movs	r0, #0
 1915 083e FFF7FEFF 		bl	getBottomRow
 1916 0842 0300     		movs	r3, r0
 1917 0844 7B60     		str	r3, [r7, #4]
 274:Z:/MOP/c-code/mop/SuperPedro\Pedro.c **** 	if(bottomRow & pepperStripe){
 1918              		.loc 1 274 0
 1919 0846 7B68     		ldr	r3, [r7, #4]
 1920 0848 FA68     		ldr	r2, [r7, #12]
 1921 084a 1340     		ands	r3, r2
 1922 084c 01D0     		beq	.L122
 275:Z:/MOP/c-code/mop/SuperPedro\Pedro.c **** 		return 1;
 1923              		.loc 1 275 0
 1924 084e 0123     		movs	r3, #1
 1925 0850 00E0     		b	.L123
 1926              	.L122:
 276:Z:/MOP/c-code/mop/SuperPedro\Pedro.c **** 	}
 277:Z:/MOP/c-code/mop/SuperPedro\Pedro.c **** 	return 0;
 1927              		.loc 1 277 0
 1928 0852 0023     		movs	r3, #0
 1929              	.L123:
 278:Z:/MOP/c-code/mop/SuperPedro\Pedro.c **** 	
 279:Z:/MOP/c-code/mop/SuperPedro\Pedro.c **** }
 1930              		.loc 1 279 0
 1931 0854 1800     		movs	r0, r3
 1932 0856 BD46     		mov	sp, r7
 1933 0858 04B0     		add	sp, sp, #16
 1934              		@ sp needed
 1935 085a 80BD     		pop	{r7, pc}
 1936              	.L125:
 1937              		.align	2
 1938              	.L124:
 1939 085c 40010000 		.word	Pedro
 1940 0860 00000000 		.word	backBuffer
 1941 0864 07000080 		.word	-2147483641
 1942              		.cfi_endproc
 1943              	.LFE10:
 1945              		.align	1
 1946              		.global	getBottomRow
 1947              		.syntax unified
 1948              		.code	16
 1949              		.thumb_func
 1950              		.fpu softvfp
 1952              	getBottomRow:
 1953              	.LFB11:
 280:Z:/MOP/c-code/mop/SuperPedro\Pedro.c **** 
 281:Z:/MOP/c-code/mop/SuperPedro\Pedro.c **** int getBottomRow(int posyposy){
 1954              		.loc 1 281 0
 1955              		.cfi_startproc
 1956              		@ args = 0, pretend = 0, frame = 32
 1957              		@ frame_needed = 1, uses_anonymous_args = 0
 1958 0868 80B5     		push	{r7, lr}
 1959              		.cfi_def_cfa_offset 8
 1960              		.cfi_offset 7, -8
 1961              		.cfi_offset 14, -4
 1962 086a 88B0     		sub	sp, sp, #32
 1963              		.cfi_def_cfa_offset 40
 1964 086c 00AF     		add	r7, sp, #0
 1965              		.cfi_def_cfa_register 7
 1966 086e 7860     		str	r0, [r7, #4]
 282:Z:/MOP/c-code/mop/SuperPedro\Pedro.c **** 	unsigned char* man = Pedro.sprite;
 1967              		.loc 1 282 0
 1968 0870 284B     		ldr	r3, .L132
 1969 0872 5B6B     		ldr	r3, [r3, #52]
 1970 0874 7B61     		str	r3, [r7, #20]
 283:Z:/MOP/c-code/mop/SuperPedro\Pedro.c **** 	unsigned char i;
 284:Z:/MOP/c-code/mop/SuperPedro\Pedro.c **** 	int s = 0;
 1971              		.loc 1 284 0
 1972 0876 0023     		movs	r3, #0
 1973 0878 BB61     		str	r3, [r7, #24]
 285:Z:/MOP/c-code/mop/SuperPedro\Pedro.c **** 	for(i = 0; i < Pedro.width; i++){
 1974              		.loc 1 285 0
 1975 087a 1F23     		movs	r3, #31
 1976 087c FB18     		adds	r3, r7, r3
 1977 087e 0022     		movs	r2, #0
 1978 0880 1A70     		strb	r2, [r3]
 1979 0882 30E0     		b	.L127
 1980              	.L129:
 1981              	.LBB15:
 286:Z:/MOP/c-code/mop/SuperPedro\Pedro.c **** 		unsigned char take = *(man+(((Pedro.height)/8)-1)*(Pedro.width)+i);
 1982              		.loc 1 286 0 discriminator 3
 1983 0884 234B     		ldr	r3, .L132
 1984 0886 1B68     		ldr	r3, [r3]
 1985 0888 002B     		cmp	r3, #0
 1986 088a 00DA     		bge	.L128
 1987 088c 0733     		adds	r3, r3, #7
 1988              	.L128:
 1989 088e DB10     		asrs	r3, r3, #3
 1990 0890 5A1E     		subs	r2, r3, #1
 1991 0892 204B     		ldr	r3, .L132
 1992 0894 5B68     		ldr	r3, [r3, #4]
 1993 0896 5343     		muls	r3, r2
 1994 0898 1A00     		movs	r2, r3
 1995 089a 1F21     		movs	r1, #31
 1996 089c 7B18     		adds	r3, r7, r1
 1997 089e 1B78     		ldrb	r3, [r3]
 1998 08a0 D318     		adds	r3, r2, r3
 1999 08a2 7A69     		ldr	r2, [r7, #20]
 2000 08a4 D218     		adds	r2, r2, r3
 2001 08a6 1320     		movs	r0, #19
 2002 08a8 3B18     		adds	r3, r7, r0
 2003 08aa 1278     		ldrb	r2, [r2]
 2004 08ac 1A70     		strb	r2, [r3]
 287:Z:/MOP/c-code/mop/SuperPedro\Pedro.c **** 		int part = (int)take;
 2005              		.loc 1 287 0 discriminator 3
 2006 08ae 3B18     		adds	r3, r7, r0
 2007 08b0 1B78     		ldrb	r3, [r3]
 2008 08b2 FB60     		str	r3, [r7, #12]
 288:Z:/MOP/c-code/mop/SuperPedro\Pedro.c **** 		part &= (1<<(7-posyposy));
 2009              		.loc 1 288 0 discriminator 3
 2010 08b4 7B68     		ldr	r3, [r7, #4]
 2011 08b6 0722     		movs	r2, #7
 2012 08b8 D31A     		subs	r3, r2, r3
 2013 08ba 0122     		movs	r2, #1
 2014 08bc 9A40     		lsls	r2, r2, r3
 2015 08be FB68     		ldr	r3, [r7, #12]
 2016 08c0 1340     		ands	r3, r2
 2017 08c2 FB60     		str	r3, [r7, #12]
 289:Z:/MOP/c-code/mop/SuperPedro\Pedro.c **** 		s |= part<<(24-i+posyposy);
 2018              		.loc 1 289 0 discriminator 3
 2019 08c4 7B18     		adds	r3, r7, r1
 2020 08c6 1B78     		ldrb	r3, [r3]
 2021 08c8 1822     		movs	r2, #24
 2022 08ca D21A     		subs	r2, r2, r3
 2023 08cc 7B68     		ldr	r3, [r7, #4]
 2024 08ce D318     		adds	r3, r2, r3
 2025 08d0 FA68     		ldr	r2, [r7, #12]
 2026 08d2 9A40     		lsls	r2, r2, r3
 2027 08d4 1300     		movs	r3, r2
 2028 08d6 BA69     		ldr	r2, [r7, #24]
 2029 08d8 1343     		orrs	r3, r2
 2030 08da BB61     		str	r3, [r7, #24]
 2031              	.LBE15:
 285:Z:/MOP/c-code/mop/SuperPedro\Pedro.c **** 		unsigned char take = *(man+(((Pedro.height)/8)-1)*(Pedro.width)+i);
 2032              		.loc 1 285 0 discriminator 3
 2033 08dc 7B18     		adds	r3, r7, r1
 2034 08de 1A78     		ldrb	r2, [r3]
 2035 08e0 7B18     		adds	r3, r7, r1
 2036 08e2 0132     		adds	r2, r2, #1
 2037 08e4 1A70     		strb	r2, [r3]
 2038              	.L127:
 285:Z:/MOP/c-code/mop/SuperPedro\Pedro.c **** 		unsigned char take = *(man+(((Pedro.height)/8)-1)*(Pedro.width)+i);
 2039              		.loc 1 285 0 is_stmt 0 discriminator 1
 2040 08e6 1F23     		movs	r3, #31
 2041 08e8 FB18     		adds	r3, r7, r3
 2042 08ea 1A78     		ldrb	r2, [r3]
 2043 08ec 094B     		ldr	r3, .L132
 2044 08ee 5B68     		ldr	r3, [r3, #4]
 2045 08f0 9A42     		cmp	r2, r3
 2046 08f2 C7DB     		blt	.L129
 290:Z:/MOP/c-code/mop/SuperPedro\Pedro.c **** 	}
 291:Z:/MOP/c-code/mop/SuperPedro\Pedro.c **** 	if((s & 0x03FFFFFF) == 0){
 2047              		.loc 1 291 0 is_stmt 1
 2048 08f4 BB69     		ldr	r3, [r7, #24]
 2049 08f6 9B01     		lsls	r3, r3, #6
 2050 08f8 9B09     		lsrs	r3, r3, #6
 2051 08fa 06D1     		bne	.L130
 292:Z:/MOP/c-code/mop/SuperPedro\Pedro.c **** 		return getBottomRow((posyposy+1));
 2052              		.loc 1 292 0
 2053 08fc 7B68     		ldr	r3, [r7, #4]
 2054 08fe 0133     		adds	r3, r3, #1
 2055 0900 1800     		movs	r0, r3
 2056 0902 FFF7FEFF 		bl	getBottomRow
 2057 0906 0300     		movs	r3, r0
 2058 0908 00E0     		b	.L131
 2059              	.L130:
 293:Z:/MOP/c-code/mop/SuperPedro\Pedro.c **** 	}
 294:Z:/MOP/c-code/mop/SuperPedro\Pedro.c **** 	return s;
 2060              		.loc 1 294 0
 2061 090a BB69     		ldr	r3, [r7, #24]
 2062              	.L131:
 295:Z:/MOP/c-code/mop/SuperPedro\Pedro.c **** }
 2063              		.loc 1 295 0
 2064 090c 1800     		movs	r0, r3
 2065 090e BD46     		mov	sp, r7
 2066 0910 08B0     		add	sp, sp, #32
 2067              		@ sp needed
 2068 0912 80BD     		pop	{r7, pc}
 2069              	.L133:
 2070              		.align	2
 2071              	.L132:
 2072 0914 40010000 		.word	Pedro
 2073              		.cfi_endproc
 2074              	.LFE11:
 2076              		.align	1
 2077              		.global	getDistance
 2078              		.syntax unified
 2079              		.code	16
 2080              		.thumb_func
 2081              		.fpu softvfp
 2083              	getDistance:
 2084              	.LFB12:
 296:Z:/MOP/c-code/mop/SuperPedro\Pedro.c **** 
 297:Z:/MOP/c-code/mop/SuperPedro\Pedro.c **** int getDistance(){
 2085              		.loc 1 297 0
 2086              		.cfi_startproc
 2087              		@ args = 0, pretend = 0, frame = 0
 2088              		@ frame_needed = 1, uses_anonymous_args = 0
 2089 0918 80B5     		push	{r7, lr}
 2090              		.cfi_def_cfa_offset 8
 2091              		.cfi_offset 7, -8
 2092              		.cfi_offset 14, -4
 2093 091a 00AF     		add	r7, sp, #0
 2094              		.cfi_def_cfa_register 7
 298:Z:/MOP/c-code/mop/SuperPedro\Pedro.c ****     return Pedro.distance;
 2095              		.loc 1 298 0
 2096 091c 024B     		ldr	r3, .L136
 2097 091e 1B6B     		ldr	r3, [r3, #48]
 299:Z:/MOP/c-code/mop/SuperPedro\Pedro.c **** }
 2098              		.loc 1 299 0
 2099 0920 1800     		movs	r0, r3
 2100 0922 BD46     		mov	sp, r7
 2101              		@ sp needed
 2102 0924 80BD     		pop	{r7, pc}
 2103              	.L137:
 2104 0926 C046     		.align	2
 2105              	.L136:
 2106 0928 40010000 		.word	Pedro
 2107              		.cfi_endproc
 2108              	.LFE12:
 2110              		.align	1
 2111              		.global	getVelx
 2112              		.syntax unified
 2113              		.code	16
 2114              		.thumb_func
 2115              		.fpu softvfp
 2117              	getVelx:
 2118              	.LFB13:
 300:Z:/MOP/c-code/mop/SuperPedro\Pedro.c **** int getVelx(){
 2119              		.loc 1 300 0
 2120              		.cfi_startproc
 2121              		@ args = 0, pretend = 0, frame = 0
 2122              		@ frame_needed = 1, uses_anonymous_args = 0
 2123 092c B0B5     		push	{r4, r5, r7, lr}
 2124              		.cfi_def_cfa_offset 16
 2125              		.cfi_offset 4, -16
 2126              		.cfi_offset 5, -12
 2127              		.cfi_offset 7, -8
 2128              		.cfi_offset 14, -4
 2129 092e 00AF     		add	r7, sp, #0
 2130              		.cfi_def_cfa_register 7
 301:Z:/MOP/c-code/mop/SuperPedro\Pedro.c ****     return (int)Pedro.velx;
 2131              		.loc 1 301 0
 2132 0930 054B     		ldr	r3, .L140
 2133 0932 5C69     		ldr	r4, [r3, #20]
 2134 0934 1B69     		ldr	r3, [r3, #16]
 2135 0936 1800     		movs	r0, r3
 2136 0938 2100     		movs	r1, r4
 2137 093a FFF7FEFF 		bl	__aeabi_d2iz
 2138              	.LVL22:
 2139 093e 0300     		movs	r3, r0
 302:Z:/MOP/c-code/mop/SuperPedro\Pedro.c **** }
 2140              		.loc 1 302 0
 2141 0940 1800     		movs	r0, r3
 2142 0942 BD46     		mov	sp, r7
 2143              		@ sp needed
 2144 0944 B0BD     		pop	{r4, r5, r7, pc}
 2145              	.L141:
 2146 0946 C046     		.align	2
 2147              	.L140:
 2148 0948 40010000 		.word	Pedro
 2149              		.cfi_endproc
 2150              	.LFE13:
 2152              	.Letext0:
 2153              		.file 2 "Z:/MOP/c-code/mop/SuperPedro/pedro.h"
 2154              		.file 3 "Z:/MOP/c-code/mop/SuperPedro/LcdAscii.h"
 2155              		.file 4 "<built-in>"
